ARM GAS  C:\Users\DELL\AppData\Local\Temp\ccPD3xk5.s 			page 1


   1              		.syntax unified
   2              		.cpu cortex-m3
   3              		.fpu softvfp
   4              		.eabi_attribute 20, 1
   5              		.eabi_attribute 21, 1
   6              		.eabi_attribute 23, 3
   7              		.eabi_attribute 24, 1
   8              		.eabi_attribute 25, 1
   9              		.eabi_attribute 26, 1
  10              		.eabi_attribute 30, 1
  11              		.eabi_attribute 34, 1
  12              		.eabi_attribute 18, 4
  13              		.thumb
  14              		.syntax unified
  15              		.file	"main.c"
  16              		.text
  17              	.Ltext0:
  18              		.cfi_sections	.debug_frame
  19              		.section	.text.timer_tc_isr,"ax",%progbits
  20              		.align	2
  21              		.global	timer_tc_isr
  22              		.thumb
  23              		.thumb_func
  24              		.type	timer_tc_isr, %function
  25              	timer_tc_isr:
  26              	.LFB64:
  27              		.file 1 "main.c"
   1:main.c        **** /* ========================================
   2:main.c        ****  *
   3:main.c        ****  * Copyright YOUR COMPANY, THE YEAR
   4:main.c        ****  * All Rights Reserved
   5:main.c        ****  * UNPUBLISHED, LICENSED SOFTWARE.
   6:main.c        ****  *
   7:main.c        ****  * CONFIDENTIAL AND PROPRIETARY INFORMATION
   8:main.c        ****  * WHICH IS THE PROPERTY OF your company.
   9:main.c        ****  *
  10:main.c        ****  * ========================================
  11:main.c        **** */
  12:main.c        **** #include "project.h"
  13:main.c        **** #include <stdio.h>
  14:main.c        **** #include <stdlib.h>
  15:main.c        **** #include "IDAC_1.h"
  16:main.c        **** #include "UART_1.h"
  17:main.c        **** 
  18:main.c        **** #define BUFFER_SIZE 6312
  19:main.c        **** 
  20:main.c        **** uint8_t rxBuffer1[BUFFER_SIZE];
  21:main.c        **** uint8_t rxBuffer2[BUFFER_SIZE];
  22:main.c        **** uint8_t* currentRxBuffer;
  23:main.c        **** uint8_t* plotBuffer;
  24:main.c        **** volatile uint8_t receivedData;
  25:main.c        **** volatile int bufferFilled = 0; // Flag to indicate buffer is completely filled
  26:main.c        **** volatile uint32_t tc_count = 0;
  27:main.c        **** uint32_t count;
  28:main.c        **** uint8_t OneToSend = 0x01;
  29:main.c        **** char string[128];
  30:main.c        **** 
ARM GAS  C:\Users\DELL\AppData\Local\Temp\ccPD3xk5.s 			page 2


  31:main.c        **** CY_ISR(timer_tc_isr) {
  28              		.loc 1 31 0
  29              		.cfi_startproc
  30              		@ args = 0, pretend = 0, frame = 0
  31              		@ frame_needed = 0, uses_anonymous_args = 0
  32 0000 08B5     		push	{r3, lr}
  33              		.cfi_def_cfa_offset 8
  34              		.cfi_offset 3, -8
  35              		.cfi_offset 14, -4
  32:main.c        ****     Timer_1_ReadStatusRegister();
  36              		.loc 1 32 0
  37 0002 FFF7FEFF 		bl	Timer_1_ReadStatusRegister
  38              	.LVL0:
  33:main.c        ****     tc_count++;
  39              		.loc 1 33 0
  40 0006 024A     		ldr	r2, .L3
  41 0008 1368     		ldr	r3, [r2]
  42 000a 0133     		adds	r3, r3, #1
  43 000c 1360     		str	r3, [r2]
  44 000e 08BD     		pop	{r3, pc}
  45              	.L4:
  46              		.align	2
  47              	.L3:
  48 0010 00000000 		.word	.LANCHOR0
  49              		.cfi_endproc
  50              	.LFE64:
  51              		.size	timer_tc_isr, .-timer_tc_isr
  52              		.section	.text.UART_Rx_Handler,"ax",%progbits
  53              		.align	2
  54              		.global	UART_Rx_Handler
  55              		.thumb
  56              		.thumb_func
  57              		.type	UART_Rx_Handler, %function
  58              	UART_Rx_Handler:
  59              	.LFB68:
  34:main.c        **** }
  35:main.c        **** 
  36:main.c        **** void start_measure(void) {
  37:main.c        ****     Timer_1_Stop();
  38:main.c        ****     Timer_1_ReadStatusRegister();
  39:main.c        ****     Timer_1_WriteCounter(0);
  40:main.c        ****     isr_timer_ClearPending();
  41:main.c        ****     tc_count = 0;
  42:main.c        ****     Timer_1_Start();
  43:main.c        **** }
  44:main.c        **** 
  45:main.c        **** uint32_t stop_measure(void) {
  46:main.c        ****     Timer_1_Stop();
  47:main.c        ****     count = Timer_1_ReadPeriod() - Timer_1_ReadCounter();
  48:main.c        ****     if (tc_count) {
  49:main.c        ****         count += tc_count * Timer_1_ReadPeriod();
  50:main.c        ****     }
  51:main.c        ****     return (count);
  52:main.c        **** }
  53:main.c        **** 
  54:main.c        **** void initializeComponents(void) {
  55:main.c        ****     CyGlobalIntEnable; /* Enable global interrupts. */
ARM GAS  C:\Users\DELL\AppData\Local\Temp\ccPD3xk5.s 			page 3


  56:main.c        ****     isr_timer_ClearPending();
  57:main.c        ****     isr_timer_StartEx(timer_tc_isr);
  58:main.c        **** 
  59:main.c        ****     Timer_1_Start();
  60:main.c        ****     UART_1_Start();    // Start UART communication
  61:main.c        ****     IDAC_1_Start();    // Start DAC component
  62:main.c        ****     PGA_Inv_1_Start();
  63:main.c        ****     TIA_1_Start();
  64:main.c        ****     Opamp_1_Start();
  65:main.c        ****     UART_1_ClearRxBuffer(); // Clear UART receive buffer
  66:main.c        ****     UART_1_ClearTxBuffer(); // Clear UART transmit buffer
  67:main.c        ****     currentRxBuffer = rxBuffer1;
  68:main.c        ****     plotBuffer = rxBuffer2;
  69:main.c        ****     //UART_1_PutChar(OneToSend); // Initial request for data
  70:main.c        **** }
  71:main.c        **** 
  72:main.c        **** // ISR Handler for UART RX
  73:main.c        **** CY_ISR(UART_Rx_Handler) {
  60              		.loc 1 73 0
  61              		.cfi_startproc
  62              		@ args = 0, pretend = 0, frame = 0
  63              		@ frame_needed = 0, uses_anonymous_args = 0
  64 0000 10B5     		push	{r4, lr}
  65              		.cfi_def_cfa_offset 8
  66              		.cfi_offset 4, -8
  67              		.cfi_offset 14, -4
  74:main.c        ****     static int index = 0;
  75:main.c        ****     isr_1_ClearPending();
  68              		.loc 1 75 0
  69 0002 FFF7FEFF 		bl	isr_1_ClearPending
  70              	.LVL1:
  76:main.c        **** 
  77:main.c        ****     if (bufferFilled == 0) { // Only receive new data if the buffer is not yet filled
  71              		.loc 1 77 0
  72 0006 0E4B     		ldr	r3, .L11
  73 0008 5B68     		ldr	r3, [r3, #4]
  74 000a A3B1     		cbz	r3, .L8
  75 000c 10BD     		pop	{r4, pc}
  76              	.L9:
  78:main.c        ****         while (UART_1_GetRxBufferSize() > 0) {
  79:main.c        ****             receivedData = UART_1_ReadRxData(); /* Read received data */
  77              		.loc 1 79 0
  78 000e FFF7FEFF 		bl	UART_1_ReadRxData
  79              	.LVL2:
  80 0012 0C49     		ldr	r1, .L11+4
  81 0014 0870     		strb	r0, [r1]
  80:main.c        ****             currentRxBuffer[index++] = receivedData; /* Store received data in buffer */
  82              		.loc 1 80 0
  83 0016 0C4B     		ldr	r3, .L11+8
  84 0018 1C68     		ldr	r4, [r3]
  85 001a 0948     		ldr	r0, .L11
  86 001c 8268     		ldr	r2, [r0, #8]
  87 001e 531C     		adds	r3, r2, #1
  88 0020 8360     		str	r3, [r0, #8]
  89 0022 0978     		ldrb	r1, [r1]	@ zero_extendqisi2
  90 0024 A154     		strb	r1, [r4, r2]
  81:main.c        ****             //sprintf(string, "%d\t", (int)currentRxBuffer[index-1]);
ARM GAS  C:\Users\DELL\AppData\Local\Temp\ccPD3xk5.s 			page 4


  82:main.c        ****             //UART_1_PutString(string);
  83:main.c        ****            
  84:main.c        ****             if (index >= BUFFER_SIZE) {
  91              		.loc 1 84 0
  92 0026 41F6A702 		movw	r2, #6311
  93 002a 9342     		cmp	r3, r2
  94 002c 03DD     		ble	.L8
  85:main.c        ****                 bufferFilled = 1; // Set flag to indicate buffer is full
  95              		.loc 1 85 0
  96 002e 0122     		movs	r2, #1
  97 0030 4260     		str	r2, [r0, #4]
  86:main.c        ****                 index = 0; // Reset index for next reception
  98              		.loc 1 86 0
  99 0032 0022     		movs	r2, #0
 100 0034 8260     		str	r2, [r0, #8]
 101              	.L8:
  78:main.c        ****             receivedData = UART_1_ReadRxData(); /* Read received data */
 102              		.loc 1 78 0
 103 0036 FFF7FEFF 		bl	UART_1_GetRxBufferSize
 104              	.LVL3:
 105 003a 0028     		cmp	r0, #0
 106 003c E7D1     		bne	.L9
 107 003e 10BD     		pop	{r4, pc}
 108              	.L12:
 109              		.align	2
 110              	.L11:
 111 0040 00000000 		.word	.LANCHOR0
 112 0044 00000000 		.word	receivedData
 113 0048 00000000 		.word	currentRxBuffer
 114              		.cfi_endproc
 115              	.LFE68:
 116              		.size	UART_Rx_Handler, .-UART_Rx_Handler
 117              		.section	.text.start_measure,"ax",%progbits
 118              		.align	2
 119              		.global	start_measure
 120              		.thumb
 121              		.thumb_func
 122              		.type	start_measure, %function
 123              	start_measure:
 124              	.LFB65:
  36:main.c        ****     Timer_1_Stop();
 125              		.loc 1 36 0
 126              		.cfi_startproc
 127              		@ args = 0, pretend = 0, frame = 0
 128              		@ frame_needed = 0, uses_anonymous_args = 0
 129 0000 08B5     		push	{r3, lr}
 130              		.cfi_def_cfa_offset 8
 131              		.cfi_offset 3, -8
 132              		.cfi_offset 14, -4
  37:main.c        ****     Timer_1_ReadStatusRegister();
 133              		.loc 1 37 0
 134 0002 FFF7FEFF 		bl	Timer_1_Stop
 135              	.LVL4:
  38:main.c        ****     Timer_1_WriteCounter(0);
 136              		.loc 1 38 0
 137 0006 FFF7FEFF 		bl	Timer_1_ReadStatusRegister
 138              	.LVL5:
ARM GAS  C:\Users\DELL\AppData\Local\Temp\ccPD3xk5.s 			page 5


  39:main.c        ****     isr_timer_ClearPending();
 139              		.loc 1 39 0
 140 000a 0020     		movs	r0, #0
 141 000c FFF7FEFF 		bl	Timer_1_WriteCounter
 142              	.LVL6:
  40:main.c        ****     tc_count = 0;
 143              		.loc 1 40 0
 144 0010 FFF7FEFF 		bl	isr_timer_ClearPending
 145              	.LVL7:
  41:main.c        ****     Timer_1_Start();
 146              		.loc 1 41 0
 147 0014 0022     		movs	r2, #0
 148 0016 024B     		ldr	r3, .L15
 149 0018 1A60     		str	r2, [r3]
  42:main.c        **** }
 150              		.loc 1 42 0
 151 001a FFF7FEFF 		bl	Timer_1_Start
 152              	.LVL8:
 153 001e 08BD     		pop	{r3, pc}
 154              	.L16:
 155              		.align	2
 156              	.L15:
 157 0020 00000000 		.word	.LANCHOR0
 158              		.cfi_endproc
 159              	.LFE65:
 160              		.size	start_measure, .-start_measure
 161              		.section	.text.stop_measure,"ax",%progbits
 162              		.align	2
 163              		.global	stop_measure
 164              		.thumb
 165              		.thumb_func
 166              		.type	stop_measure, %function
 167              	stop_measure:
 168              	.LFB66:
  45:main.c        ****     Timer_1_Stop();
 169              		.loc 1 45 0
 170              		.cfi_startproc
 171              		@ args = 0, pretend = 0, frame = 0
 172              		@ frame_needed = 0, uses_anonymous_args = 0
 173 0000 10B5     		push	{r4, lr}
 174              		.cfi_def_cfa_offset 8
 175              		.cfi_offset 4, -8
 176              		.cfi_offset 14, -4
  46:main.c        ****     count = Timer_1_ReadPeriod() - Timer_1_ReadCounter();
 177              		.loc 1 46 0
 178 0002 FFF7FEFF 		bl	Timer_1_Stop
 179              	.LVL9:
  47:main.c        ****     if (tc_count) {
 180              		.loc 1 47 0
 181 0006 FFF7FEFF 		bl	Timer_1_ReadPeriod
 182              	.LVL10:
 183 000a 0446     		mov	r4, r0
 184 000c FFF7FEFF 		bl	Timer_1_ReadCounter
 185              	.LVL11:
 186 0010 201A     		subs	r0, r4, r0
 187 0012 084B     		ldr	r3, .L20
 188 0014 1860     		str	r0, [r3]
ARM GAS  C:\Users\DELL\AppData\Local\Temp\ccPD3xk5.s 			page 6


  48:main.c        ****         count += tc_count * Timer_1_ReadPeriod();
 189              		.loc 1 48 0
 190 0016 084B     		ldr	r3, .L20+4
 191 0018 1B68     		ldr	r3, [r3]
 192 001a 43B1     		cbz	r3, .L18
  49:main.c        ****     }
 193              		.loc 1 49 0
 194 001c FFF7FEFF 		bl	Timer_1_ReadPeriod
 195              	.LVL12:
 196 0020 054B     		ldr	r3, .L20+4
 197 0022 1B68     		ldr	r3, [r3]
 198 0024 034A     		ldr	r2, .L20
 199 0026 1168     		ldr	r1, [r2]
 200 0028 03FB0010 		mla	r0, r3, r0, r1
 201 002c 1060     		str	r0, [r2]
 202              	.L18:
  52:main.c        **** 
 203              		.loc 1 52 0
 204 002e 014B     		ldr	r3, .L20
 205 0030 1868     		ldr	r0, [r3]
 206 0032 10BD     		pop	{r4, pc}
 207              	.L21:
 208              		.align	2
 209              	.L20:
 210 0034 00000000 		.word	count
 211 0038 00000000 		.word	.LANCHOR0
 212              		.cfi_endproc
 213              	.LFE66:
 214              		.size	stop_measure, .-stop_measure
 215              		.section	.text.initializeComponents,"ax",%progbits
 216              		.align	2
 217              		.global	initializeComponents
 218              		.thumb
 219              		.thumb_func
 220              		.type	initializeComponents, %function
 221              	initializeComponents:
 222              	.LFB67:
  54:main.c        ****     CyGlobalIntEnable; /* Enable global interrupts. */
 223              		.loc 1 54 0
 224              		.cfi_startproc
 225              		@ args = 0, pretend = 0, frame = 0
 226              		@ frame_needed = 0, uses_anonymous_args = 0
 227 0000 08B5     		push	{r3, lr}
 228              		.cfi_def_cfa_offset 8
 229              		.cfi_offset 3, -8
 230              		.cfi_offset 14, -4
  55:main.c        ****     isr_timer_ClearPending();
 231              		.loc 1 55 0
 232              		.syntax unified
 233              	@ 55 "main.c" 1
 234 0002 62B6     		CPSIE   i
 235              	@ 0 "" 2
  56:main.c        ****     isr_timer_StartEx(timer_tc_isr);
 236              		.loc 1 56 0
 237              		.thumb
 238              		.syntax unified
 239 0004 FFF7FEFF 		bl	isr_timer_ClearPending
ARM GAS  C:\Users\DELL\AppData\Local\Temp\ccPD3xk5.s 			page 7


 240              	.LVL13:
  57:main.c        **** 
 241              		.loc 1 57 0
 242 0008 0C48     		ldr	r0, .L24
 243 000a FFF7FEFF 		bl	isr_timer_StartEx
 244              	.LVL14:
  59:main.c        ****     UART_1_Start();    // Start UART communication
 245              		.loc 1 59 0
 246 000e FFF7FEFF 		bl	Timer_1_Start
 247              	.LVL15:
  60:main.c        ****     IDAC_1_Start();    // Start DAC component
 248              		.loc 1 60 0
 249 0012 FFF7FEFF 		bl	UART_1_Start
 250              	.LVL16:
  61:main.c        ****     PGA_Inv_1_Start();
 251              		.loc 1 61 0
 252 0016 FFF7FEFF 		bl	IDAC_1_Start
 253              	.LVL17:
  62:main.c        ****     TIA_1_Start();
 254              		.loc 1 62 0
 255 001a FFF7FEFF 		bl	PGA_Inv_1_Start
 256              	.LVL18:
  63:main.c        ****     Opamp_1_Start();
 257              		.loc 1 63 0
 258 001e FFF7FEFF 		bl	TIA_1_Start
 259              	.LVL19:
  64:main.c        ****     UART_1_ClearRxBuffer(); // Clear UART receive buffer
 260              		.loc 1 64 0
 261 0022 FFF7FEFF 		bl	Opamp_1_Start
 262              	.LVL20:
  65:main.c        ****     UART_1_ClearTxBuffer(); // Clear UART transmit buffer
 263              		.loc 1 65 0
 264 0026 FFF7FEFF 		bl	UART_1_ClearRxBuffer
 265              	.LVL21:
  66:main.c        ****     currentRxBuffer = rxBuffer1;
 266              		.loc 1 66 0
 267 002a FFF7FEFF 		bl	UART_1_ClearTxBuffer
 268              	.LVL22:
  67:main.c        ****     plotBuffer = rxBuffer2;
 269              		.loc 1 67 0
 270 002e 044A     		ldr	r2, .L24+4
 271 0030 044B     		ldr	r3, .L24+8
 272 0032 1A60     		str	r2, [r3]
  68:main.c        ****     //UART_1_PutChar(OneToSend); // Initial request for data
 273              		.loc 1 68 0
 274 0034 044A     		ldr	r2, .L24+12
 275 0036 054B     		ldr	r3, .L24+16
 276 0038 1A60     		str	r2, [r3]
 277 003a 08BD     		pop	{r3, pc}
 278              	.L25:
 279              		.align	2
 280              	.L24:
 281 003c 00000000 		.word	timer_tc_isr
 282 0040 00000000 		.word	rxBuffer1
 283 0044 00000000 		.word	currentRxBuffer
 284 0048 00000000 		.word	rxBuffer2
 285 004c 00000000 		.word	plotBuffer
ARM GAS  C:\Users\DELL\AppData\Local\Temp\ccPD3xk5.s 			page 8


 286              		.cfi_endproc
 287              	.LFE67:
 288              		.size	initializeComponents, .-initializeComponents
 289              		.section	.text.plotData,"ax",%progbits
 290              		.align	2
 291              		.global	plotData
 292              		.thumb
 293              		.thumb_func
 294              		.type	plotData, %function
 295              	plotData:
 296              	.LFB69:
  87:main.c        ****                
  88:main.c        ****                 /*uint8_t* temp = plotBuffer;
  89:main.c        ****                 plotBuffer = currentRxBuffer;
  90:main.c        ****                 currentRxBuffer = temp;*/
  91:main.c        ****             }
  92:main.c        ****         }
  93:main.c        ****     }
  94:main.c        **** }
  95:main.c        **** 
  96:main.c        **** void plotData(void) {
 297              		.loc 1 96 0
 298              		.cfi_startproc
 299              		@ args = 0, pretend = 0, frame = 0
 300              		@ frame_needed = 0, uses_anonymous_args = 0
 301 0000 10B5     		push	{r4, lr}
 302              		.cfi_def_cfa_offset 8
 303              		.cfi_offset 4, -8
 304              		.cfi_offset 14, -4
 305              	.LVL23:
 306              	.LBB2:
  97:main.c        ****     for (int i = 0; i < BUFFER_SIZE; i++) {
 307              		.loc 1 97 0
 308 0002 0024     		movs	r4, #0
 309 0004 09E0     		b	.L27
 310              	.LVL24:
 311              	.L28:
  98:main.c        ****         IDAC_1_SetValue(plotBuffer[i]); // Set IDAC value
 312              		.loc 1 98 0 discriminator 3
 313 0006 074B     		ldr	r3, .L30
 314 0008 1B68     		ldr	r3, [r3]
 315 000a 185D     		ldrb	r0, [r3, r4]	@ zero_extendqisi2
 316 000c FFF7FEFF 		bl	IDAC_1_SetValue
 317              	.LVL25:
  99:main.c        ****         CyDelayUs(2777);                     // 2 ms delay between points
 318              		.loc 1 99 0 discriminator 3
 319 0010 40F6D920 		movw	r0, #2777
 320 0014 FFF7FEFF 		bl	CyDelayUs
 321              	.LVL26:
  97:main.c        ****     for (int i = 0; i < BUFFER_SIZE; i++) {
 322              		.loc 1 97 0 discriminator 3
 323 0018 0134     		adds	r4, r4, #1
 324              	.LVL27:
 325              	.L27:
  97:main.c        ****     for (int i = 0; i < BUFFER_SIZE; i++) {
 326              		.loc 1 97 0 is_stmt 0 discriminator 1
 327 001a 41F6A703 		movw	r3, #6311
ARM GAS  C:\Users\DELL\AppData\Local\Temp\ccPD3xk5.s 			page 9


 328 001e 9C42     		cmp	r4, r3
 329 0020 F1DD     		ble	.L28
 330              	.LBE2:
 100:main.c        ****     }
 101:main.c        **** }
 331              		.loc 1 101 0 is_stmt 1
 332 0022 10BD     		pop	{r4, pc}
 333              	.LVL28:
 334              	.L31:
 335              		.align	2
 336              	.L30:
 337 0024 00000000 		.word	plotBuffer
 338              		.cfi_endproc
 339              	.LFE69:
 340              		.size	plotData, .-plotData
 341              		.section	.text.main,"ax",%progbits
 342              		.align	2
 343              		.global	main
 344              		.thumb
 345              		.thumb_func
 346              		.type	main, %function
 347              	main:
 348              	.LFB70:
 102:main.c        **** 
 103:main.c        **** int main(void) {
 349              		.loc 1 103 0
 350              		.cfi_startproc
 351              		@ args = 0, pretend = 0, frame = 0
 352              		@ frame_needed = 0, uses_anonymous_args = 0
 353 0000 08B5     		push	{r3, lr}
 354              		.cfi_def_cfa_offset 8
 355              		.cfi_offset 3, -8
 356              		.cfi_offset 14, -4
 104:main.c        ****     initializeComponents();
 357              		.loc 1 104 0
 358 0002 FFF7FEFF 		bl	initializeComponents
 359              	.LVL29:
 105:main.c        ****     isr_1_StartEx(UART_Rx_Handler); // Start UART RX ISR
 360              		.loc 1 105 0
 361 0006 0C48     		ldr	r0, .L36
 362 0008 FFF7FEFF 		bl	isr_1_StartEx
 363              	.LVL30:
 364              	.L34:
 106:main.c        ****    
 107:main.c        ****     while (1) {
 108:main.c        ****         if (bufferFilled) { // Plot data only if buffer is filled
 365              		.loc 1 108 0
 366 000c 0B4B     		ldr	r3, .L36+4
 367 000e 5B68     		ldr	r3, [r3, #4]
 368 0010 3BB1     		cbz	r3, .L33
 369              	.LBB3:
 109:main.c        ****             // Critical section start
 110:main.c        ****             CyGlobalIntDisable; // Disable interrupts to avoid race condition
 370              		.loc 1 110 0
 371              		.syntax unified
 372              	@ 110 "main.c" 1
 373 0012 72B6     		CPSID   i
ARM GAS  C:\Users\DELL\AppData\Local\Temp\ccPD3xk5.s 			page 10


 374              	@ 0 "" 2
 111:main.c        ****            
 112:main.c        ****             // Swap buffers before plotting so that new data can be received while plotting
 113:main.c        ****             uint8_t* temp = plotBuffer;
 375              		.loc 1 113 0
 376              		.thumb
 377              		.syntax unified
 378 0014 0A4A     		ldr	r2, .L36+8
 379 0016 1168     		ldr	r1, [r2]
 380              	.LVL31:
 114:main.c        ****             plotBuffer = currentRxBuffer;
 381              		.loc 1 114 0
 382 0018 0A4B     		ldr	r3, .L36+12
 383 001a 1868     		ldr	r0, [r3]
 384 001c 1060     		str	r0, [r2]
 115:main.c        ****             currentRxBuffer = temp;
 385              		.loc 1 115 0
 386 001e 1960     		str	r1, [r3]
 116:main.c        ****            
 117:main.c        ****             CyGlobalIntEnable; // Re-enable interrupts
 387              		.loc 1 117 0
 388              		.syntax unified
 389              	@ 117 "main.c" 1
 390 0020 62B6     		CPSIE   i
 391              	@ 0 "" 2
 392              	.LVL32:
 393              		.thumb
 394              		.syntax unified
 395              	.L33:
 396              	.LBE3:
 118:main.c        ****             // Critical section end
 119:main.c        ****         }
 120:main.c        ****        
 121:main.c        ****         bufferFilled = 0; // Reset the flag to allow new data reception
 397              		.loc 1 121 0
 398 0022 0022     		movs	r2, #0
 399 0024 054B     		ldr	r3, .L36+4
 400 0026 5A60     		str	r2, [r3, #4]
 122:main.c        ****        
 123:main.c        ****         UART_1_WriteTxData(OneToSend); // Transmit 1 byte to request the next chunk of data
 401              		.loc 1 123 0
 402 0028 074B     		ldr	r3, .L36+16
 403 002a 1878     		ldrb	r0, [r3]	@ zero_extendqisi2
 404 002c FFF7FEFF 		bl	UART_1_WriteTxData
 405              	.LVL33:
 124:main.c        ****         //CyDelay(1);
 125:main.c        ****        
 126:main.c        ****         plotData(); // Plot data from the plotBuffer
 406              		.loc 1 126 0
 407 0030 FFF7FEFF 		bl	plotData
 408              	.LVL34:
 127:main.c        ****        
 128:main.c        ****         //bufferFilled = 0; // Reset the flag to allow new data reception
 129:main.c        ****        
 130:main.c        ****        
 131:main.c        ****     }
 409              		.loc 1 131 0
ARM GAS  C:\Users\DELL\AppData\Local\Temp\ccPD3xk5.s 			page 11


 410 0034 EAE7     		b	.L34
 411              	.L37:
 412 0036 00BF     		.align	2
 413              	.L36:
 414 0038 00000000 		.word	UART_Rx_Handler
 415 003c 00000000 		.word	.LANCHOR0
 416 0040 00000000 		.word	plotBuffer
 417 0044 00000000 		.word	currentRxBuffer
 418 0048 00000000 		.word	.LANCHOR1
 419              		.cfi_endproc
 420              	.LFE70:
 421              		.size	main, .-main
 422              		.comm	string,128,4
 423              		.global	OneToSend
 424              		.comm	count,4,4
 425              		.global	tc_count
 426              		.global	bufferFilled
 427              		.comm	receivedData,1,1
 428              		.comm	plotBuffer,4,4
 429              		.comm	currentRxBuffer,4,4
 430              		.comm	rxBuffer2,6312,4
 431              		.comm	rxBuffer1,6312,4
 432              		.data
 433              		.set	.LANCHOR1,. + 0
 434              		.type	OneToSend, %object
 435              		.size	OneToSend, 1
 436              	OneToSend:
 437 0000 01       		.byte	1
 438              		.bss
 439              		.align	2
 440              		.set	.LANCHOR0,. + 0
 441              		.type	tc_count, %object
 442              		.size	tc_count, 4
 443              	tc_count:
 444 0000 00000000 		.space	4
 445              		.type	bufferFilled, %object
 446              		.size	bufferFilled, 4
 447              	bufferFilled:
 448 0004 00000000 		.space	4
 449              		.type	index.7107, %object
 450              		.size	index.7107, 4
 451              	index.7107:
 452 0008 00000000 		.space	4
 453              		.text
 454              	.Letext0:
 455              		.file 2 "c:\\program files (x86)\\cypress\\psoc creator\\4.4\\psoc creator\\import\\gnu\\arm\\5.4.
 456              		.file 3 "c:\\program files (x86)\\cypress\\psoc creator\\4.4\\psoc creator\\import\\gnu\\arm\\5.4.
 457              		.file 4 "Generated_Source\\PSoC5/core_cm3.h"
 458              		.file 5 "Generated_Source\\PSoC5/Timer_1.h"
 459              		.file 6 "Generated_Source\\PSoC5/isr_1.h"
 460              		.file 7 "Generated_Source\\PSoC5/UART_1.h"
 461              		.file 8 "Generated_Source\\PSoC5/isr_timer.h"
 462              		.file 9 "Generated_Source\\PSoC5/IDAC_1.h"
 463              		.file 10 "Generated_Source\\PSoC5/PGA_Inv_1.h"
 464              		.file 11 "Generated_Source\\PSoC5/TIA_1.h"
 465              		.file 12 "Generated_Source\\PSoC5/Opamp_1.h"
 466              		.file 13 "Generated_Source\\PSoC5/CyLib.h"
ARM GAS  C:\Users\DELL\AppData\Local\Temp\ccPD3xk5.s 			page 12

