ARM GAS  C:\Users\MALOBI~1\AppData\Local\Temp\cciQdYlT.s 			page 1


   1              		.syntax unified
   2              		.cpu cortex-m3
   3              		.fpu softvfp
   4              		.eabi_attribute 20, 1
   5              		.eabi_attribute 21, 1
   6              		.eabi_attribute 23, 3
   7              		.eabi_attribute 24, 1
   8              		.eabi_attribute 25, 1
   9              		.eabi_attribute 26, 1
  10              		.eabi_attribute 30, 1
  11              		.eabi_attribute 34, 1
  12              		.eabi_attribute 18, 4
  13              		.thumb
  14              		.syntax unified
  15              		.file	"VDAC_1.c"
  16              		.text
  17              	.Ltext0:
  18              		.cfi_sections	.debug_frame
  19              		.section	.text.VDAC_1_InitDma,"ax",%progbits
  20              		.align	2
  21              		.thumb
  22              		.thumb_func
  23              		.type	VDAC_1_InitDma, %function
  24              	VDAC_1_InitDma:
  25              	.LFB5:
  26              		.file 1 "Generated_Source\\PSoC5\\VDAC_1.c"
   1:Generated_Source\PSoC5/VDAC_1.c **** /*******************************************************************************
   2:Generated_Source\PSoC5/VDAC_1.c **** * File Name: VDAC_1.c
   3:Generated_Source\PSoC5/VDAC_1.c **** * Version 2.10
   4:Generated_Source\PSoC5/VDAC_1.c **** *
   5:Generated_Source\PSoC5/VDAC_1.c **** * Description:
   6:Generated_Source\PSoC5/VDAC_1.c **** *  This file provides the source code of APIs for the DVDAC component.
   7:Generated_Source\PSoC5/VDAC_1.c **** *
   8:Generated_Source\PSoC5/VDAC_1.c **** ********************************************************************************
   9:Generated_Source\PSoC5/VDAC_1.c **** * Copyright 2013, Cypress Semiconductor Corporation.  All rights reserved.
  10:Generated_Source\PSoC5/VDAC_1.c **** * You may use this file only in accordance with the license, terms, conditions,
  11:Generated_Source\PSoC5/VDAC_1.c **** * disclaimers, and limitations in the end user license agreement accompanying
  12:Generated_Source\PSoC5/VDAC_1.c **** * the software package with which this file was provided.
  13:Generated_Source\PSoC5/VDAC_1.c **** *******************************************************************************/
  14:Generated_Source\PSoC5/VDAC_1.c **** 
  15:Generated_Source\PSoC5/VDAC_1.c **** #include "VDAC_1.h"
  16:Generated_Source\PSoC5/VDAC_1.c **** #include "VDAC_1_VDAC8.h"
  17:Generated_Source\PSoC5/VDAC_1.c **** #include "CyDmac.h"
  18:Generated_Source\PSoC5/VDAC_1.c **** #include "VDAC_1_DMA_dma.H"
  19:Generated_Source\PSoC5/VDAC_1.c **** 
  20:Generated_Source\PSoC5/VDAC_1.c **** #if(VDAC_1_INTERNAL_CLOCK_USED)
  21:Generated_Source\PSoC5/VDAC_1.c ****     #include "VDAC_1_IntClock.h"
  22:Generated_Source\PSoC5/VDAC_1.c **** #endif /* VDAC_1_INTERNAL_CLOCK_USED */
  23:Generated_Source\PSoC5/VDAC_1.c **** 
  24:Generated_Source\PSoC5/VDAC_1.c **** 
  25:Generated_Source\PSoC5/VDAC_1.c **** static uint8 VDAC_1_ditheredValues[4u] = {0x80u, 0x80u, 0x80u, 0x80u};
  26:Generated_Source\PSoC5/VDAC_1.c **** 
  27:Generated_Source\PSoC5/VDAC_1.c **** 
  28:Generated_Source\PSoC5/VDAC_1.c **** uint8 VDAC_1_initVar = 0u;
  29:Generated_Source\PSoC5/VDAC_1.c **** 
  30:Generated_Source\PSoC5/VDAC_1.c **** static uint8 VDAC_1_dmaChan;
  31:Generated_Source\PSoC5/VDAC_1.c **** static uint8 VDAC_1_dmaTd = CY_DMA_INVALID_TD;
ARM GAS  C:\Users\MALOBI~1\AppData\Local\Temp\cciQdYlT.s 			page 2


  32:Generated_Source\PSoC5/VDAC_1.c **** 
  33:Generated_Source\PSoC5/VDAC_1.c **** static void VDAC_1_InitDma(void)  ;
  34:Generated_Source\PSoC5/VDAC_1.c **** 
  35:Generated_Source\PSoC5/VDAC_1.c **** 
  36:Generated_Source\PSoC5/VDAC_1.c **** /*******************************************************************************
  37:Generated_Source\PSoC5/VDAC_1.c **** * Function Name: VDAC_1_Init
  38:Generated_Source\PSoC5/VDAC_1.c **** ********************************************************************************
  39:Generated_Source\PSoC5/VDAC_1.c **** *
  40:Generated_Source\PSoC5/VDAC_1.c **** * Summary:
  41:Generated_Source\PSoC5/VDAC_1.c **** *  Initializes or restores the component according to the customizer Configure
  42:Generated_Source\PSoC5/VDAC_1.c **** *  dialog settings. It is not necessary to call VDAC_1_Init() because
  43:Generated_Source\PSoC5/VDAC_1.c **** *  the VDAC_1_Start() API calls this function and is the preferred
  44:Generated_Source\PSoC5/VDAC_1.c **** *  method to begin component operation.
  45:Generated_Source\PSoC5/VDAC_1.c **** *
  46:Generated_Source\PSoC5/VDAC_1.c **** * Parameters:
  47:Generated_Source\PSoC5/VDAC_1.c **** *  None
  48:Generated_Source\PSoC5/VDAC_1.c **** *
  49:Generated_Source\PSoC5/VDAC_1.c **** * Return:
  50:Generated_Source\PSoC5/VDAC_1.c **** *  None
  51:Generated_Source\PSoC5/VDAC_1.c **** *
  52:Generated_Source\PSoC5/VDAC_1.c **** * Side Effects:
  53:Generated_Source\PSoC5/VDAC_1.c **** *  All registers will be set to values according to the customizer Configure
  54:Generated_Source\PSoC5/VDAC_1.c **** *  dialog.
  55:Generated_Source\PSoC5/VDAC_1.c **** *
  56:Generated_Source\PSoC5/VDAC_1.c **** * Global variables:
  57:Generated_Source\PSoC5/VDAC_1.c **** *  None
  58:Generated_Source\PSoC5/VDAC_1.c **** *
  59:Generated_Source\PSoC5/VDAC_1.c **** *******************************************************************************/
  60:Generated_Source\PSoC5/VDAC_1.c **** void VDAC_1_Init(void) 
  61:Generated_Source\PSoC5/VDAC_1.c **** {
  62:Generated_Source\PSoC5/VDAC_1.c ****     VDAC_1_VDAC8_Init();
  63:Generated_Source\PSoC5/VDAC_1.c **** 
  64:Generated_Source\PSoC5/VDAC_1.c ****     if(CY_DMA_INVALID_TD == VDAC_1_dmaTd)
  65:Generated_Source\PSoC5/VDAC_1.c ****     {
  66:Generated_Source\PSoC5/VDAC_1.c ****         VDAC_1_InitDma();
  67:Generated_Source\PSoC5/VDAC_1.c ****     }
  68:Generated_Source\PSoC5/VDAC_1.c **** }
  69:Generated_Source\PSoC5/VDAC_1.c **** 
  70:Generated_Source\PSoC5/VDAC_1.c **** 
  71:Generated_Source\PSoC5/VDAC_1.c **** /*******************************************************************************
  72:Generated_Source\PSoC5/VDAC_1.c **** * Function Name: VDAC_1_Enable
  73:Generated_Source\PSoC5/VDAC_1.c **** ********************************************************************************
  74:Generated_Source\PSoC5/VDAC_1.c **** *
  75:Generated_Source\PSoC5/VDAC_1.c **** * Summary:
  76:Generated_Source\PSoC5/VDAC_1.c **** *  Activates the hardware and begins component operation. It is not necessary to
  77:Generated_Source\PSoC5/VDAC_1.c **** *  call VDAC_1_Enable() because the VDAC_1_Start() API calls
  78:Generated_Source\PSoC5/VDAC_1.c **** *  this function, which is the preferred method to begin component operation.
  79:Generated_Source\PSoC5/VDAC_1.c **** *
  80:Generated_Source\PSoC5/VDAC_1.c **** * Parameters:
  81:Generated_Source\PSoC5/VDAC_1.c **** *  None
  82:Generated_Source\PSoC5/VDAC_1.c **** *
  83:Generated_Source\PSoC5/VDAC_1.c **** * Return:
  84:Generated_Source\PSoC5/VDAC_1.c **** *  None
  85:Generated_Source\PSoC5/VDAC_1.c **** *
  86:Generated_Source\PSoC5/VDAC_1.c **** * Global variables:
  87:Generated_Source\PSoC5/VDAC_1.c **** *  None
  88:Generated_Source\PSoC5/VDAC_1.c **** *
ARM GAS  C:\Users\MALOBI~1\AppData\Local\Temp\cciQdYlT.s 			page 3


  89:Generated_Source\PSoC5/VDAC_1.c **** *******************************************************************************/
  90:Generated_Source\PSoC5/VDAC_1.c **** void VDAC_1_Enable(void) 
  91:Generated_Source\PSoC5/VDAC_1.c **** {
  92:Generated_Source\PSoC5/VDAC_1.c ****     (void) CyDmaChEnable(VDAC_1_dmaChan, 1u);
  93:Generated_Source\PSoC5/VDAC_1.c **** 
  94:Generated_Source\PSoC5/VDAC_1.c ****     #if(VDAC_1_INTERNAL_CLOCK_USED)
  95:Generated_Source\PSoC5/VDAC_1.c ****         VDAC_1_IntClock_Start();
  96:Generated_Source\PSoC5/VDAC_1.c ****     #endif /* VDAC_1_INTERNAL_CLOCK_USED */
  97:Generated_Source\PSoC5/VDAC_1.c **** 
  98:Generated_Source\PSoC5/VDAC_1.c ****     VDAC_1_VDAC8_Enable();
  99:Generated_Source\PSoC5/VDAC_1.c **** }
 100:Generated_Source\PSoC5/VDAC_1.c **** 
 101:Generated_Source\PSoC5/VDAC_1.c **** 
 102:Generated_Source\PSoC5/VDAC_1.c **** /*******************************************************************************
 103:Generated_Source\PSoC5/VDAC_1.c **** * Function Name: VDAC_1_Start
 104:Generated_Source\PSoC5/VDAC_1.c **** ********************************************************************************
 105:Generated_Source\PSoC5/VDAC_1.c **** *
 106:Generated_Source\PSoC5/VDAC_1.c **** * Summary:
 107:Generated_Source\PSoC5/VDAC_1.c **** *  Performs all of the required initialization for the component and enables
 108:Generated_Source\PSoC5/VDAC_1.c **** *  power to the block. The first time the routine is executed, the component is
 109:Generated_Source\PSoC5/VDAC_1.c **** *  initialized to the configured settings. When called to restart the DVDAC
 110:Generated_Source\PSoC5/VDAC_1.c **** *  following a VDAC_1_Stop() call, the current component parameter
 111:Generated_Source\PSoC5/VDAC_1.c **** *  settings are retained.
 112:Generated_Source\PSoC5/VDAC_1.c **** *
 113:Generated_Source\PSoC5/VDAC_1.c **** * Parameters:
 114:Generated_Source\PSoC5/VDAC_1.c **** *  None
 115:Generated_Source\PSoC5/VDAC_1.c **** *
 116:Generated_Source\PSoC5/VDAC_1.c **** * Return:
 117:Generated_Source\PSoC5/VDAC_1.c **** *  None
 118:Generated_Source\PSoC5/VDAC_1.c **** *
 119:Generated_Source\PSoC5/VDAC_1.c **** * Side Effects:
 120:Generated_Source\PSoC5/VDAC_1.c **** *  If the VDAC_1_initVar variable is already set, this function only
 121:Generated_Source\PSoC5/VDAC_1.c **** *  calls the VDAC_1_Enable() function.
 122:Generated_Source\PSoC5/VDAC_1.c **** *
 123:Generated_Source\PSoC5/VDAC_1.c **** * Global variables:
 124:Generated_Source\PSoC5/VDAC_1.c **** *  VDAC_1_initVar - indicates whether the DVDAC has been initialized.
 125:Generated_Source\PSoC5/VDAC_1.c **** *  The variable is initialized to 0 and set to 1 the first time DVDAC_Start()
 126:Generated_Source\PSoC5/VDAC_1.c **** *  is called. This allows the component to restart without reinitialization
 127:Generated_Source\PSoC5/VDAC_1.c **** *  after the first call to the VDAC_1_Start() routine. If
 128:Generated_Source\PSoC5/VDAC_1.c **** *  reinitialization of the component is required, then the
 129:Generated_Source\PSoC5/VDAC_1.c **** *  VDAC_1_Init() function can be called before the
 130:Generated_Source\PSoC5/VDAC_1.c **** *  VDAC_1_Start() or VDAC_1_Enable() function.
 131:Generated_Source\PSoC5/VDAC_1.c **** *
 132:Generated_Source\PSoC5/VDAC_1.c **** *******************************************************************************/
 133:Generated_Source\PSoC5/VDAC_1.c **** void VDAC_1_Start(void) 
 134:Generated_Source\PSoC5/VDAC_1.c **** {
 135:Generated_Source\PSoC5/VDAC_1.c ****     /* Hardware initiazation only needs to occure the first time */
 136:Generated_Source\PSoC5/VDAC_1.c ****     if(0u == VDAC_1_initVar)
 137:Generated_Source\PSoC5/VDAC_1.c ****     {
 138:Generated_Source\PSoC5/VDAC_1.c ****         VDAC_1_Init();
 139:Generated_Source\PSoC5/VDAC_1.c ****         VDAC_1_initVar = 1u;
 140:Generated_Source\PSoC5/VDAC_1.c ****     }
 141:Generated_Source\PSoC5/VDAC_1.c **** 
 142:Generated_Source\PSoC5/VDAC_1.c ****     VDAC_1_Enable();
 143:Generated_Source\PSoC5/VDAC_1.c **** }
 144:Generated_Source\PSoC5/VDAC_1.c **** 
 145:Generated_Source\PSoC5/VDAC_1.c **** 
ARM GAS  C:\Users\MALOBI~1\AppData\Local\Temp\cciQdYlT.s 			page 4


 146:Generated_Source\PSoC5/VDAC_1.c **** /*******************************************************************************
 147:Generated_Source\PSoC5/VDAC_1.c **** * Function Name: VDAC_1_Stop
 148:Generated_Source\PSoC5/VDAC_1.c **** ********************************************************************************
 149:Generated_Source\PSoC5/VDAC_1.c **** *
 150:Generated_Source\PSoC5/VDAC_1.c **** * Summary:
 151:Generated_Source\PSoC5/VDAC_1.c **** *  Stops the component and turns off the analog blocks in the DVDAC.
 152:Generated_Source\PSoC5/VDAC_1.c **** *
 153:Generated_Source\PSoC5/VDAC_1.c **** * Parameters:
 154:Generated_Source\PSoC5/VDAC_1.c **** *  None
 155:Generated_Source\PSoC5/VDAC_1.c **** *
 156:Generated_Source\PSoC5/VDAC_1.c **** * Return:
 157:Generated_Source\PSoC5/VDAC_1.c **** *  None
 158:Generated_Source\PSoC5/VDAC_1.c **** *
 159:Generated_Source\PSoC5/VDAC_1.c **** * Global variables:
 160:Generated_Source\PSoC5/VDAC_1.c **** *  None
 161:Generated_Source\PSoC5/VDAC_1.c **** *
 162:Generated_Source\PSoC5/VDAC_1.c **** *******************************************************************************/
 163:Generated_Source\PSoC5/VDAC_1.c **** void VDAC_1_Stop(void) 
 164:Generated_Source\PSoC5/VDAC_1.c **** {
 165:Generated_Source\PSoC5/VDAC_1.c ****     #if(VDAC_1_INTERNAL_CLOCK_USED)
 166:Generated_Source\PSoC5/VDAC_1.c ****         VDAC_1_IntClock_Stop();
 167:Generated_Source\PSoC5/VDAC_1.c ****     #endif /* VDAC_1_INTERNAL_CLOCK_USED */
 168:Generated_Source\PSoC5/VDAC_1.c **** 
 169:Generated_Source\PSoC5/VDAC_1.c ****     (void) CyDmaChDisable(VDAC_1_dmaChan);
 170:Generated_Source\PSoC5/VDAC_1.c ****     VDAC_1_VDAC8_Stop();
 171:Generated_Source\PSoC5/VDAC_1.c **** }
 172:Generated_Source\PSoC5/VDAC_1.c **** 
 173:Generated_Source\PSoC5/VDAC_1.c **** 
 174:Generated_Source\PSoC5/VDAC_1.c **** /*******************************************************************************
 175:Generated_Source\PSoC5/VDAC_1.c **** * Function Name: VDAC_1_SetValue
 176:Generated_Source\PSoC5/VDAC_1.c **** ********************************************************************************
 177:Generated_Source\PSoC5/VDAC_1.c **** *
 178:Generated_Source\PSoC5/VDAC_1.c **** * Summary:
 179:Generated_Source\PSoC5/VDAC_1.c **** *  Sets the DVDACs output. The function populates the SRAM array based on the
 180:Generated_Source\PSoC5/VDAC_1.c **** *  value and the resolution setting. That array is then transferred to the
 181:Generated_Source\PSoC5/VDAC_1.c **** *  internal VDAC by DMA.
 182:Generated_Source\PSoC5/VDAC_1.c **** *
 183:Generated_Source\PSoC5/VDAC_1.c **** * Parameters:
 184:Generated_Source\PSoC5/VDAC_1.c **** *  (uint16) value:  The maximum value will be dependent on the resolution
 185:Generated_Source\PSoC5/VDAC_1.c **** *  selected:
 186:Generated_Source\PSoC5/VDAC_1.c **** *   Resolution       Valid range
 187:Generated_Source\PSoC5/VDAC_1.c **** *        9 bits       0x0 - 0x1FE
 188:Generated_Source\PSoC5/VDAC_1.c **** *       10 bits       0x0 - 0x3FC
 189:Generated_Source\PSoC5/VDAC_1.c **** *       11 bits       0x0 - 0x7F8
 190:Generated_Source\PSoC5/VDAC_1.c **** *       12 bits       0x0 - 0xFF0
 191:Generated_Source\PSoC5/VDAC_1.c **** *
 192:Generated_Source\PSoC5/VDAC_1.c **** *  This value includes an integer portion and a fractional portion that varies
 193:Generated_Source\PSoC5/VDAC_1.c **** *  depending on number of bits of resolution:
 194:Generated_Source\PSoC5/VDAC_1.c **** *   - 9-bits:  1 fractional bit
 195:Generated_Source\PSoC5/VDAC_1.c **** *   - 10-bits: 2 fractional bits
 196:Generated_Source\PSoC5/VDAC_1.c **** *   - 11-bits: 3 fractional bits
 197:Generated_Source\PSoC5/VDAC_1.c **** *   - 12-bits: 4 fractional bits
 198:Generated_Source\PSoC5/VDAC_1.c **** *
 199:Generated_Source\PSoC5/VDAC_1.c **** * Return:
 200:Generated_Source\PSoC5/VDAC_1.c **** *  None
 201:Generated_Source\PSoC5/VDAC_1.c **** *
 202:Generated_Source\PSoC5/VDAC_1.c **** * Global variables:
ARM GAS  C:\Users\MALOBI~1\AppData\Local\Temp\cciQdYlT.s 			page 5


 203:Generated_Source\PSoC5/VDAC_1.c **** *  None
 204:Generated_Source\PSoC5/VDAC_1.c **** *
 205:Generated_Source\PSoC5/VDAC_1.c **** *******************************************************************************/
 206:Generated_Source\PSoC5/VDAC_1.c **** void VDAC_1_SetValue(uint16 value) 
 207:Generated_Source\PSoC5/VDAC_1.c **** {
 208:Generated_Source\PSoC5/VDAC_1.c ****     uint8  lowCount  = (uint8)(value & VDAC_1_FRACTIONAL_PORTION_MASK);
 209:Generated_Source\PSoC5/VDAC_1.c ****     uint8 highCount  = (uint8)(value >> VDAC_1_INTEGER_PORTION_SHIFT);
 210:Generated_Source\PSoC5/VDAC_1.c ****     uint8 i;
 211:Generated_Source\PSoC5/VDAC_1.c **** 
 212:Generated_Source\PSoC5/VDAC_1.c **** 
 213:Generated_Source\PSoC5/VDAC_1.c ****     CYASSERT(value <= VDAC_1_DVDAC_MAX_VALUE);
 214:Generated_Source\PSoC5/VDAC_1.c **** 
 215:Generated_Source\PSoC5/VDAC_1.c ****     if (VDAC_1_INTEGER_PORTION_MAX_VALUE == highCount)
 216:Generated_Source\PSoC5/VDAC_1.c ****     {
 217:Generated_Source\PSoC5/VDAC_1.c ****         for (i = 0u; i < VDAC_1_DITHERED_ARRAY_SIZE; i++)
 218:Generated_Source\PSoC5/VDAC_1.c ****         {
 219:Generated_Source\PSoC5/VDAC_1.c ****             VDAC_1_ditheredValues[i] = VDAC_1_INTEGER_PORTION_MAX_VALUE;
 220:Generated_Source\PSoC5/VDAC_1.c ****         }
 221:Generated_Source\PSoC5/VDAC_1.c ****     }
 222:Generated_Source\PSoC5/VDAC_1.c ****     else
 223:Generated_Source\PSoC5/VDAC_1.c ****     {
 224:Generated_Source\PSoC5/VDAC_1.c ****         for(i = 0u; i < VDAC_1_DITHERED_ARRAY_SIZE; i++)
 225:Generated_Source\PSoC5/VDAC_1.c ****         {
 226:Generated_Source\PSoC5/VDAC_1.c ****             if(i < (VDAC_1_DITHERED_ARRAY_SIZE - lowCount))
 227:Generated_Source\PSoC5/VDAC_1.c ****             {
 228:Generated_Source\PSoC5/VDAC_1.c ****                 VDAC_1_ditheredValues[i] = highCount;
 229:Generated_Source\PSoC5/VDAC_1.c ****             }
 230:Generated_Source\PSoC5/VDAC_1.c ****             else
 231:Generated_Source\PSoC5/VDAC_1.c ****             {
 232:Generated_Source\PSoC5/VDAC_1.c ****                 VDAC_1_ditheredValues[i] = highCount + 1u;
 233:Generated_Source\PSoC5/VDAC_1.c ****             }
 234:Generated_Source\PSoC5/VDAC_1.c ****         }
 235:Generated_Source\PSoC5/VDAC_1.c ****     }
 236:Generated_Source\PSoC5/VDAC_1.c **** }
 237:Generated_Source\PSoC5/VDAC_1.c **** 
 238:Generated_Source\PSoC5/VDAC_1.c **** 
 239:Generated_Source\PSoC5/VDAC_1.c **** /*******************************************************************************
 240:Generated_Source\PSoC5/VDAC_1.c **** * Function Name: VDAC_1_InitDma
 241:Generated_Source\PSoC5/VDAC_1.c **** ********************************************************************************
 242:Generated_Source\PSoC5/VDAC_1.c **** *
 243:Generated_Source\PSoC5/VDAC_1.c **** * Summary:
 244:Generated_Source\PSoC5/VDAC_1.c **** *  Configures a DMA transfer of channel values from memory to VDAC.
 245:Generated_Source\PSoC5/VDAC_1.c **** *
 246:Generated_Source\PSoC5/VDAC_1.c **** * Parameters:
 247:Generated_Source\PSoC5/VDAC_1.c **** *  None
 248:Generated_Source\PSoC5/VDAC_1.c **** *
 249:Generated_Source\PSoC5/VDAC_1.c **** * Return:
 250:Generated_Source\PSoC5/VDAC_1.c **** *  None
 251:Generated_Source\PSoC5/VDAC_1.c **** *
 252:Generated_Source\PSoC5/VDAC_1.c **** *******************************************************************************/
 253:Generated_Source\PSoC5/VDAC_1.c **** static void VDAC_1_InitDma(void)  
 254:Generated_Source\PSoC5/VDAC_1.c **** {
  27              		.loc 1 254 0
  28              		.cfi_startproc
  29              		@ args = 0, pretend = 0, frame = 0
  30              		@ frame_needed = 0, uses_anonymous_args = 0
  31 0000 70B5     		push	{r4, r5, r6, lr}
ARM GAS  C:\Users\MALOBI~1\AppData\Local\Temp\cciQdYlT.s 			page 6


  32              		.cfi_def_cfa_offset 16
  33              		.cfi_offset 4, -16
  34              		.cfi_offset 5, -12
  35              		.cfi_offset 6, -8
  36              		.cfi_offset 14, -4
 255:Generated_Source\PSoC5/VDAC_1.c ****     /***************************************************************************
 256:Generated_Source\PSoC5/VDAC_1.c ****     * Transfers channel values from SRAM to VDAC register. One byte transfer,
 257:Generated_Source\PSoC5/VDAC_1.c ****     * each burst requires a request.
 258:Generated_Source\PSoC5/VDAC_1.c ****     ***************************************************************************/
 259:Generated_Source\PSoC5/VDAC_1.c ****     VDAC_1_dmaChan = VDAC_1_DMA_DmaInitialize(
  37              		.loc 1 259 0
  38 0002 4FF48043 		mov	r3, #16384
  39 0006 41F6FF72 		movw	r2, #8191
  40 000a 0121     		movs	r1, #1
  41 000c 0846     		mov	r0, r1
  42 000e FFF7FEFF 		bl	VDAC_1_DMA_DmaInitialize
  43              	.LVL0:
  44 0012 0C4E     		ldr	r6, .L3
  45 0014 3070     		strb	r0, [r6]
 260:Generated_Source\PSoC5/VDAC_1.c ****                                     VDAC_1_DMA_BYTES_PER_BURST,
 261:Generated_Source\PSoC5/VDAC_1.c ****                                     VDAC_1_DMA_REQUEST_PER_BURST,
 262:Generated_Source\PSoC5/VDAC_1.c ****                                     HI16(VDAC_1_DMA_SRC_BASE),
 263:Generated_Source\PSoC5/VDAC_1.c ****                                     HI16(VDAC_1_DMA_DST_BASE));
 264:Generated_Source\PSoC5/VDAC_1.c **** 
 265:Generated_Source\PSoC5/VDAC_1.c ****     VDAC_1_dmaTd = CyDmaTdAllocate();
  46              		.loc 1 265 0
  47 0016 FFF7FEFF 		bl	CyDmaTdAllocate
  48              	.LVL1:
  49 001a 0246     		mov	r2, r0
  50 001c 0A4C     		ldr	r4, .L3+4
  51 001e 2546     		mov	r5, r4
  52 0020 05F8040B 		strb	r0, [r5], #4
 266:Generated_Source\PSoC5/VDAC_1.c **** 
 267:Generated_Source\PSoC5/VDAC_1.c **** 
 268:Generated_Source\PSoC5/VDAC_1.c ****     /***************************************************************************
 269:Generated_Source\PSoC5/VDAC_1.c ****     * One TD looping on itself, increment the source address, but not the
 270:Generated_Source\PSoC5/VDAC_1.c ****     * destination address.
 271:Generated_Source\PSoC5/VDAC_1.c ****     ***************************************************************************/
 272:Generated_Source\PSoC5/VDAC_1.c ****     (void) CyDmaTdSetConfiguration( VDAC_1_dmaTd,
  53              		.loc 1 272 0
  54 0024 0123     		movs	r3, #1
  55 0026 0421     		movs	r1, #4
  56 0028 FFF7FEFF 		bl	CyDmaTdSetConfiguration
  57              	.LVL2:
 273:Generated_Source\PSoC5/VDAC_1.c ****                                     VDAC_1_DITHERED_ARRAY_SIZE,
 274:Generated_Source\PSoC5/VDAC_1.c ****                                     VDAC_1_dmaTd,
 275:Generated_Source\PSoC5/VDAC_1.c ****                                     (uint8) CY_DMA_TD_INC_SRC_ADR);
 276:Generated_Source\PSoC5/VDAC_1.c **** 
 277:Generated_Source\PSoC5/VDAC_1.c ****     /* Transfers the value for each channel from memory to VDAC */
 278:Generated_Source\PSoC5/VDAC_1.c ****     (void) CyDmaTdSetAddress(   VDAC_1_dmaTd,
  58              		.loc 1 278 0
  59 002c 45F68332 		movw	r2, #23427
  60 0030 A9B2     		uxth	r1, r5
  61 0032 2078     		ldrb	r0, [r4]	@ zero_extendqisi2
  62 0034 FFF7FEFF 		bl	CyDmaTdSetAddress
  63              	.LVL3:
 279:Generated_Source\PSoC5/VDAC_1.c ****                                 LO16((uint32)VDAC_1_ditheredValues),
ARM GAS  C:\Users\MALOBI~1\AppData\Local\Temp\cciQdYlT.s 			page 7


 280:Generated_Source\PSoC5/VDAC_1.c ****                                 LO16((uint32)VDAC_1_VDAC8_Data_PTR));
 281:Generated_Source\PSoC5/VDAC_1.c **** 
 282:Generated_Source\PSoC5/VDAC_1.c ****     (void) CyDmaChSetInitialTd(VDAC_1_dmaChan, VDAC_1_dmaTd);
  64              		.loc 1 282 0
  65 0038 2178     		ldrb	r1, [r4]	@ zero_extendqisi2
  66 003a 3078     		ldrb	r0, [r6]	@ zero_extendqisi2
  67 003c FFF7FEFF 		bl	CyDmaChSetInitialTd
  68              	.LVL4:
  69 0040 70BD     		pop	{r4, r5, r6, pc}
  70              	.L4:
  71 0042 00BF     		.align	2
  72              	.L3:
  73 0044 00000000 		.word	.LANCHOR0
  74 0048 00000000 		.word	.LANCHOR1
  75              		.cfi_endproc
  76              	.LFE5:
  77              		.size	VDAC_1_InitDma, .-VDAC_1_InitDma
  78              		.section	.text.VDAC_1_Init,"ax",%progbits
  79              		.align	2
  80              		.global	VDAC_1_Init
  81              		.thumb
  82              		.thumb_func
  83              		.type	VDAC_1_Init, %function
  84              	VDAC_1_Init:
  85              	.LFB0:
  61:Generated_Source\PSoC5/VDAC_1.c ****     VDAC_1_VDAC8_Init();
  86              		.loc 1 61 0
  87              		.cfi_startproc
  88              		@ args = 0, pretend = 0, frame = 0
  89              		@ frame_needed = 0, uses_anonymous_args = 0
  90 0000 08B5     		push	{r3, lr}
  91              		.cfi_def_cfa_offset 8
  92              		.cfi_offset 3, -8
  93              		.cfi_offset 14, -4
  62:Generated_Source\PSoC5/VDAC_1.c **** 
  94              		.loc 1 62 0
  95 0002 FFF7FEFF 		bl	VDAC_1_VDAC8_Init
  96              	.LVL5:
  64:Generated_Source\PSoC5/VDAC_1.c ****     {
  97              		.loc 1 64 0
  98 0006 034B     		ldr	r3, .L8
  99 0008 1B78     		ldrb	r3, [r3]	@ zero_extendqisi2
 100 000a FF2B     		cmp	r3, #255
 101 000c 01D1     		bne	.L5
  66:Generated_Source\PSoC5/VDAC_1.c ****     }
 102              		.loc 1 66 0
 103 000e FFF7FEFF 		bl	VDAC_1_InitDma
 104              	.LVL6:
 105              	.L5:
 106 0012 08BD     		pop	{r3, pc}
 107              	.L9:
 108              		.align	2
 109              	.L8:
 110 0014 00000000 		.word	.LANCHOR1
 111              		.cfi_endproc
 112              	.LFE0:
 113              		.size	VDAC_1_Init, .-VDAC_1_Init
ARM GAS  C:\Users\MALOBI~1\AppData\Local\Temp\cciQdYlT.s 			page 8


 114              		.section	.text.VDAC_1_Enable,"ax",%progbits
 115              		.align	2
 116              		.global	VDAC_1_Enable
 117              		.thumb
 118              		.thumb_func
 119              		.type	VDAC_1_Enable, %function
 120              	VDAC_1_Enable:
 121              	.LFB1:
  91:Generated_Source\PSoC5/VDAC_1.c ****     (void) CyDmaChEnable(VDAC_1_dmaChan, 1u);
 122              		.loc 1 91 0
 123              		.cfi_startproc
 124              		@ args = 0, pretend = 0, frame = 0
 125              		@ frame_needed = 0, uses_anonymous_args = 0
 126 0000 08B5     		push	{r3, lr}
 127              		.cfi_def_cfa_offset 8
 128              		.cfi_offset 3, -8
 129              		.cfi_offset 14, -4
  92:Generated_Source\PSoC5/VDAC_1.c **** 
 130              		.loc 1 92 0
 131 0002 0121     		movs	r1, #1
 132 0004 044B     		ldr	r3, .L12
 133 0006 1878     		ldrb	r0, [r3]	@ zero_extendqisi2
 134 0008 FFF7FEFF 		bl	CyDmaChEnable
 135              	.LVL7:
  95:Generated_Source\PSoC5/VDAC_1.c ****     #endif /* VDAC_1_INTERNAL_CLOCK_USED */
 136              		.loc 1 95 0
 137 000c FFF7FEFF 		bl	VDAC_1_IntClock_Start
 138              	.LVL8:
  98:Generated_Source\PSoC5/VDAC_1.c **** }
 139              		.loc 1 98 0
 140 0010 FFF7FEFF 		bl	VDAC_1_VDAC8_Enable
 141              	.LVL9:
 142 0014 08BD     		pop	{r3, pc}
 143              	.L13:
 144 0016 00BF     		.align	2
 145              	.L12:
 146 0018 00000000 		.word	.LANCHOR0
 147              		.cfi_endproc
 148              	.LFE1:
 149              		.size	VDAC_1_Enable, .-VDAC_1_Enable
 150              		.section	.text.VDAC_1_Start,"ax",%progbits
 151              		.align	2
 152              		.global	VDAC_1_Start
 153              		.thumb
 154              		.thumb_func
 155              		.type	VDAC_1_Start, %function
 156              	VDAC_1_Start:
 157              	.LFB2:
 134:Generated_Source\PSoC5/VDAC_1.c ****     /* Hardware initiazation only needs to occure the first time */
 158              		.loc 1 134 0
 159              		.cfi_startproc
 160              		@ args = 0, pretend = 0, frame = 0
 161              		@ frame_needed = 0, uses_anonymous_args = 0
 162 0000 08B5     		push	{r3, lr}
 163              		.cfi_def_cfa_offset 8
 164              		.cfi_offset 3, -8
 165              		.cfi_offset 14, -4
ARM GAS  C:\Users\MALOBI~1\AppData\Local\Temp\cciQdYlT.s 			page 9


 136:Generated_Source\PSoC5/VDAC_1.c ****     {
 166              		.loc 1 136 0
 167 0002 054B     		ldr	r3, .L17
 168 0004 5B78     		ldrb	r3, [r3, #1]	@ zero_extendqisi2
 169 0006 23B9     		cbnz	r3, .L15
 138:Generated_Source\PSoC5/VDAC_1.c ****         VDAC_1_initVar = 1u;
 170              		.loc 1 138 0
 171 0008 FFF7FEFF 		bl	VDAC_1_Init
 172              	.LVL10:
 139:Generated_Source\PSoC5/VDAC_1.c ****     }
 173              		.loc 1 139 0
 174 000c 0122     		movs	r2, #1
 175 000e 024B     		ldr	r3, .L17
 176 0010 5A70     		strb	r2, [r3, #1]
 177              	.L15:
 142:Generated_Source\PSoC5/VDAC_1.c **** }
 178              		.loc 1 142 0
 179 0012 FFF7FEFF 		bl	VDAC_1_Enable
 180              	.LVL11:
 181 0016 08BD     		pop	{r3, pc}
 182              	.L18:
 183              		.align	2
 184              	.L17:
 185 0018 00000000 		.word	.LANCHOR0
 186              		.cfi_endproc
 187              	.LFE2:
 188              		.size	VDAC_1_Start, .-VDAC_1_Start
 189              		.section	.text.VDAC_1_Stop,"ax",%progbits
 190              		.align	2
 191              		.global	VDAC_1_Stop
 192              		.thumb
 193              		.thumb_func
 194              		.type	VDAC_1_Stop, %function
 195              	VDAC_1_Stop:
 196              	.LFB3:
 164:Generated_Source\PSoC5/VDAC_1.c ****     #if(VDAC_1_INTERNAL_CLOCK_USED)
 197              		.loc 1 164 0
 198              		.cfi_startproc
 199              		@ args = 0, pretend = 0, frame = 0
 200              		@ frame_needed = 0, uses_anonymous_args = 0
 201 0000 08B5     		push	{r3, lr}
 202              		.cfi_def_cfa_offset 8
 203              		.cfi_offset 3, -8
 204              		.cfi_offset 14, -4
 166:Generated_Source\PSoC5/VDAC_1.c ****     #endif /* VDAC_1_INTERNAL_CLOCK_USED */
 205              		.loc 1 166 0
 206 0002 FFF7FEFF 		bl	VDAC_1_IntClock_Stop
 207              	.LVL12:
 169:Generated_Source\PSoC5/VDAC_1.c ****     VDAC_1_VDAC8_Stop();
 208              		.loc 1 169 0
 209 0006 034B     		ldr	r3, .L21
 210 0008 1878     		ldrb	r0, [r3]	@ zero_extendqisi2
 211 000a FFF7FEFF 		bl	CyDmaChDisable
 212              	.LVL13:
 170:Generated_Source\PSoC5/VDAC_1.c **** }
 213              		.loc 1 170 0
 214 000e FFF7FEFF 		bl	VDAC_1_VDAC8_Stop
ARM GAS  C:\Users\MALOBI~1\AppData\Local\Temp\cciQdYlT.s 			page 10


 215              	.LVL14:
 216 0012 08BD     		pop	{r3, pc}
 217              	.L22:
 218              		.align	2
 219              	.L21:
 220 0014 00000000 		.word	.LANCHOR0
 221              		.cfi_endproc
 222              	.LFE3:
 223              		.size	VDAC_1_Stop, .-VDAC_1_Stop
 224              		.section	.text.VDAC_1_SetValue,"ax",%progbits
 225              		.align	2
 226              		.global	VDAC_1_SetValue
 227              		.thumb
 228              		.thumb_func
 229              		.type	VDAC_1_SetValue, %function
 230              	VDAC_1_SetValue:
 231              	.LFB4:
 207:Generated_Source\PSoC5/VDAC_1.c ****     uint8  lowCount  = (uint8)(value & VDAC_1_FRACTIONAL_PORTION_MASK);
 232              		.loc 1 207 0
 233              		.cfi_startproc
 234              		@ args = 0, pretend = 0, frame = 0
 235              		@ frame_needed = 0, uses_anonymous_args = 0
 236              	.LVL15:
 237 0000 38B5     		push	{r3, r4, r5, lr}
 238              		.cfi_def_cfa_offset 16
 239              		.cfi_offset 3, -16
 240              		.cfi_offset 4, -12
 241              		.cfi_offset 5, -8
 242              		.cfi_offset 14, -4
 208:Generated_Source\PSoC5/VDAC_1.c ****     uint8 highCount  = (uint8)(value >> VDAC_1_INTEGER_PORTION_SHIFT);
 243              		.loc 1 208 0
 244 0002 00F00305 		and	r5, r0, #3
 245              	.LVL16:
 209:Generated_Source\PSoC5/VDAC_1.c ****     uint8 i;
 246              		.loc 1 209 0
 247 0006 C0F38704 		ubfx	r4, r0, #2, #8
 248              	.LVL17:
 213:Generated_Source\PSoC5/VDAC_1.c **** 
 249              		.loc 1 213 0
 250 000a B0F57F7F 		cmp	r0, #1020
 251 000e 02D9     		bls	.L24
 213:Generated_Source\PSoC5/VDAC_1.c **** 
 252              		.loc 1 213 0 is_stmt 0 discriminator 1
 253 0010 0020     		movs	r0, #0
 254              	.LVL18:
 255 0012 FFF7FEFF 		bl	CyHalt
 256              	.LVL19:
 257              	.L24:
 215:Generated_Source\PSoC5/VDAC_1.c ****     {
 258              		.loc 1 215 0 is_stmt 1
 259 0016 FF2C     		cmp	r4, #255
 260 0018 08D0     		beq	.L32
 261 001a 0023     		movs	r3, #0
 262 001c 18E0     		b	.L26
 263              	.LVL20:
 264              	.L27:
 219:Generated_Source\PSoC5/VDAC_1.c ****         }
ARM GAS  C:\Users\MALOBI~1\AppData\Local\Temp\cciQdYlT.s 			page 11


 265              		.loc 1 219 0 discriminator 3
 266 001e 0E4A     		ldr	r2, .L34
 267 0020 1A44     		add	r2, r2, r3
 268 0022 FF21     		movs	r1, #255
 269 0024 1171     		strb	r1, [r2, #4]
 217:Generated_Source\PSoC5/VDAC_1.c ****         {
 270              		.loc 1 217 0 discriminator 3
 271 0026 0133     		adds	r3, r3, #1
 272              	.LVL21:
 273 0028 DBB2     		uxtb	r3, r3
 274              	.LVL22:
 275 002a 00E0     		b	.L25
 276              	.LVL23:
 277              	.L32:
 278 002c 0023     		movs	r3, #0
 279              	.L25:
 280              	.LVL24:
 217:Generated_Source\PSoC5/VDAC_1.c ****         {
 281              		.loc 1 217 0 is_stmt 0 discriminator 1
 282 002e 032B     		cmp	r3, #3
 283 0030 F5D9     		bls	.L27
 284 0032 38BD     		pop	{r3, r4, r5, pc}
 285              	.LVL25:
 286              	.L31:
 226:Generated_Source\PSoC5/VDAC_1.c ****             {
 287              		.loc 1 226 0 is_stmt 1
 288 0034 C5F10402 		rsb	r2, r5, #4
 289 0038 9342     		cmp	r3, r2
 290 003a 03DA     		bge	.L29
 228:Generated_Source\PSoC5/VDAC_1.c ****             }
 291              		.loc 1 228 0
 292 003c 064A     		ldr	r2, .L34
 293 003e 1A44     		add	r2, r2, r3
 294 0040 1471     		strb	r4, [r2, #4]
 295 0042 03E0     		b	.L30
 296              	.L29:
 232:Generated_Source\PSoC5/VDAC_1.c ****             }
 297              		.loc 1 232 0
 298 0044 044A     		ldr	r2, .L34
 299 0046 1A44     		add	r2, r2, r3
 300 0048 611C     		adds	r1, r4, #1
 301 004a 1171     		strb	r1, [r2, #4]
 302              	.L30:
 224:Generated_Source\PSoC5/VDAC_1.c ****         {
 303              		.loc 1 224 0 discriminator 2
 304 004c 0133     		adds	r3, r3, #1
 305              	.LVL26:
 306 004e DBB2     		uxtb	r3, r3
 307              	.LVL27:
 308              	.L26:
 224:Generated_Source\PSoC5/VDAC_1.c ****         {
 309              		.loc 1 224 0 is_stmt 0 discriminator 1
 310 0050 032B     		cmp	r3, #3
 311 0052 EFD9     		bls	.L31
 312 0054 38BD     		pop	{r3, r4, r5, pc}
 313              	.LVL28:
 314              	.L35:
ARM GAS  C:\Users\MALOBI~1\AppData\Local\Temp\cciQdYlT.s 			page 12


 315 0056 00BF     		.align	2
 316              	.L34:
 317 0058 00000000 		.word	.LANCHOR1
 318              		.cfi_endproc
 319              	.LFE4:
 320              		.size	VDAC_1_SetValue, .-VDAC_1_SetValue
 321              		.global	VDAC_1_initVar
 322              		.data
 323              		.align	2
 324              		.set	.LANCHOR1,. + 0
 325              		.type	VDAC_1_dmaTd, %object
 326              		.size	VDAC_1_dmaTd, 1
 327              	VDAC_1_dmaTd:
 328 0000 FF       		.byte	-1
 329 0001 000000   		.space	3
 330              		.type	VDAC_1_ditheredValues, %object
 331              		.size	VDAC_1_ditheredValues, 4
 332              	VDAC_1_ditheredValues:
 333 0004 80       		.byte	-128
 334 0005 80       		.byte	-128
 335 0006 80       		.byte	-128
 336 0007 80       		.byte	-128
 337              		.bss
 338              		.set	.LANCHOR0,. + 0
 339              		.type	VDAC_1_dmaChan, %object
 340              		.size	VDAC_1_dmaChan, 1
 341              	VDAC_1_dmaChan:
 342 0000 00       		.space	1
 343              		.type	VDAC_1_initVar, %object
 344              		.size	VDAC_1_initVar, 1
 345              	VDAC_1_initVar:
 346 0001 00       		.space	1
 347              		.text
 348              	.Letext0:
 349              		.file 2 "Generated_Source\\PSoC5\\cytypes.h"
 350              		.file 3 "Generated_Source\\PSoC5\\VDAC_1_DMA_dma.H"
 351              		.file 4 "Generated_Source\\PSoC5\\CyDmac.h"
 352              		.file 5 "Generated_Source\\PSoC5\\VDAC_1_VDAC8.h"
 353              		.file 6 "Generated_Source\\PSoC5\\VDAC_1_IntClock.h"
 354              		.file 7 "Generated_Source\\PSoC5\\CyLib.h"