ARM GAS  C:\Users\DELL\AppData\Local\Temp\ccMTHnYe.s 			page 1


   1              		.syntax unified
   2              		.cpu cortex-m3
   3              		.fpu softvfp
   4              		.eabi_attribute 20, 1
   5              		.eabi_attribute 21, 1
   6              		.eabi_attribute 23, 3
   7              		.eabi_attribute 24, 1
   8              		.eabi_attribute 25, 1
   9              		.eabi_attribute 26, 1
  10              		.eabi_attribute 30, 1
  11              		.eabi_attribute 34, 1
  12              		.eabi_attribute 18, 4
  13              		.thumb
  14              		.syntax unified
  15              		.file	"main.c"
  16              		.text
  17              	.Ltext0:
  18              		.cfi_sections	.debug_frame
  19              		.section	.text.UART_Rx_Handler,"ax",%progbits
  20              		.align	2
  21              		.global	UART_Rx_Handler
  22              		.thumb
  23              		.thumb_func
  24              		.type	UART_Rx_Handler, %function
  25              	UART_Rx_Handler:
  26              	.LFB65:
  27              		.file 1 "main.c"
   1:main.c        **** /* ========================================
   2:main.c        ****  *
   3:main.c        ****  * Copyright YOUR COMPANY, THE YEAR
   4:main.c        ****  * All Rights Reserved
   5:main.c        ****  * UNPUBLISHED, LICENSED SOFTWARE.
   6:main.c        ****  *
   7:main.c        ****  * CONFIDENTIAL AND PROPRIETARY INFORMATION
   8:main.c        ****  * WHICH IS THE PROPERTY OF your company.
   9:main.c        ****  *
  10:main.c        ****  * ========================================
  11:main.c        **** */
  12:main.c        **** #include "project.h"
  13:main.c        **** #include <stdio.h>
  14:main.c        **** #include <stdlib.h>
  15:main.c        **** #include "IDAC_1.h"
  16:main.c        **** #include "UART_1.h"
  17:main.c        **** 
  18:main.c        **** #define BUFFER_SIZE 1152
  19:main.c        **** 
  20:main.c        **** uint8_t rxBuffer1[BUFFER_SIZE];
  21:main.c        **** uint8_t rxBuffer2[BUFFER_SIZE];
  22:main.c        **** uint8_t* currentRxBuffer;
  23:main.c        **** uint8_t* plotBuffer;
  24:main.c        **** volatile uint8_t receivedData;
  25:main.c        **** volatile int bufferFilled = 0; // Flag to indicate buffer is completely filled
  26:main.c        **** volatile uint32_t tc_count = 0;
  27:main.c        **** uint32_t count;
  28:main.c        **** uint8_t OneToSend = 0x01;
  29:main.c        **** char string[128];
  30:main.c        **** 
ARM GAS  C:\Users\DELL\AppData\Local\Temp\ccMTHnYe.s 			page 2


  31:main.c        **** void initializeComponents(void) {
  32:main.c        ****     CyGlobalIntEnable; /* Enable global interrupts. */
  33:main.c        ****     //isr_timer_ClearPending();
  34:main.c        ****     //isr_timer_StartEx(timer_tc_isr);
  35:main.c        **** 
  36:main.c        ****     
  37:main.c        ****     
  38:main.c        ****     UART_1_Start();    // Start UART communication
  39:main.c        ****     IDAC_1_Start();    // Start DAC component
  40:main.c        ****     PGA_Inv_1_Start();
  41:main.c        ****     TIA_1_Start();
  42:main.c        ****     Opamp_1_Start();
  43:main.c        ****     UART_1_ClearRxBuffer(); // Clear UART receive buffer
  44:main.c        ****     UART_1_ClearTxBuffer(); // Clear UART transmit buffer
  45:main.c        ****     currentRxBuffer = rxBuffer1;
  46:main.c        ****     plotBuffer = rxBuffer2;
  47:main.c        ****     //UART_1_PutChar(OneToSend); // Initial request for data
  48:main.c        **** }
  49:main.c        **** 
  50:main.c        **** // ISR Handler for UART RX
  51:main.c        **** CY_ISR(UART_Rx_Handler) {
  28              		.loc 1 51 0
  29              		.cfi_startproc
  30              		@ args = 0, pretend = 0, frame = 0
  31              		@ frame_needed = 0, uses_anonymous_args = 0
  32 0000 10B5     		push	{r4, lr}
  33              		.cfi_def_cfa_offset 8
  34              		.cfi_offset 4, -8
  35              		.cfi_offset 14, -4
  52:main.c        ****     static int index = 0;
  53:main.c        ****     isr_1_ClearPending();
  36              		.loc 1 53 0
  37 0002 FFF7FEFF 		bl	isr_1_ClearPending
  38              	.LVL0:
  54:main.c        **** 
  55:main.c        ****     if (bufferFilled == 0) { // Only receive new data if the buffer is not yet filled
  39              		.loc 1 55 0
  40 0006 0E4B     		ldr	r3, .L7
  41 0008 1B68     		ldr	r3, [r3]
  42 000a 9BB1     		cbz	r3, .L4
  43 000c 10BD     		pop	{r4, pc}
  44              	.L5:
  56:main.c        ****         while (UART_1_GetRxBufferSize() > 0) {
  57:main.c        ****             receivedData = UART_1_ReadRxData(); /* Read received data */
  45              		.loc 1 57 0
  46 000e FFF7FEFF 		bl	UART_1_ReadRxData
  47              	.LVL1:
  48 0012 0C49     		ldr	r1, .L7+4
  49 0014 0870     		strb	r0, [r1]
  58:main.c        ****             currentRxBuffer[index++] = receivedData; /* Store received data in buffer */
  50              		.loc 1 58 0
  51 0016 0C4B     		ldr	r3, .L7+8
  52 0018 1C68     		ldr	r4, [r3]
  53 001a 0948     		ldr	r0, .L7
  54 001c 4268     		ldr	r2, [r0, #4]
  55 001e 531C     		adds	r3, r2, #1
  56 0020 4360     		str	r3, [r0, #4]
ARM GAS  C:\Users\DELL\AppData\Local\Temp\ccMTHnYe.s 			page 3


  57 0022 0978     		ldrb	r1, [r1]	@ zero_extendqisi2
  58 0024 A154     		strb	r1, [r4, r2]
  59:main.c        ****             
  60:main.c        ****             if (index >= BUFFER_SIZE) {
  59              		.loc 1 60 0
  60 0026 B3F5906F 		cmp	r3, #1152
  61 002a 03DB     		blt	.L4
  61:main.c        ****                 bufferFilled = 1; // Set flag to indicate buffer is full
  62              		.loc 1 61 0
  63 002c 0122     		movs	r2, #1
  64 002e 0260     		str	r2, [r0]
  62:main.c        ****                 index = 0; // Reset index for next reception
  65              		.loc 1 62 0
  66 0030 0022     		movs	r2, #0
  67 0032 4260     		str	r2, [r0, #4]
  68              	.L4:
  56:main.c        ****             receivedData = UART_1_ReadRxData(); /* Read received data */
  69              		.loc 1 56 0
  70 0034 FFF7FEFF 		bl	UART_1_GetRxBufferSize
  71              	.LVL2:
  72 0038 0028     		cmp	r0, #0
  73 003a E8D1     		bne	.L5
  74 003c 10BD     		pop	{r4, pc}
  75              	.L8:
  76 003e 00BF     		.align	2
  77              	.L7:
  78 0040 00000000 		.word	.LANCHOR0
  79 0044 00000000 		.word	receivedData
  80 0048 00000000 		.word	currentRxBuffer
  81              		.cfi_endproc
  82              	.LFE65:
  83              		.size	UART_Rx_Handler, .-UART_Rx_Handler
  84              		.section	.text.initializeComponents,"ax",%progbits
  85              		.align	2
  86              		.global	initializeComponents
  87              		.thumb
  88              		.thumb_func
  89              		.type	initializeComponents, %function
  90              	initializeComponents:
  91              	.LFB64:
  31:main.c        ****     CyGlobalIntEnable; /* Enable global interrupts. */
  92              		.loc 1 31 0
  93              		.cfi_startproc
  94              		@ args = 0, pretend = 0, frame = 0
  95              		@ frame_needed = 0, uses_anonymous_args = 0
  96 0000 08B5     		push	{r3, lr}
  97              		.cfi_def_cfa_offset 8
  98              		.cfi_offset 3, -8
  99              		.cfi_offset 14, -4
  32:main.c        ****     //isr_timer_ClearPending();
 100              		.loc 1 32 0
 101              		.syntax unified
 102              	@ 32 "main.c" 1
 103 0002 62B6     		CPSIE   i
 104              	@ 0 "" 2
  38:main.c        ****     IDAC_1_Start();    // Start DAC component
 105              		.loc 1 38 0
ARM GAS  C:\Users\DELL\AppData\Local\Temp\ccMTHnYe.s 			page 4


 106              		.thumb
 107              		.syntax unified
 108 0004 FFF7FEFF 		bl	UART_1_Start
 109              	.LVL3:
  39:main.c        ****     PGA_Inv_1_Start();
 110              		.loc 1 39 0
 111 0008 FFF7FEFF 		bl	IDAC_1_Start
 112              	.LVL4:
  40:main.c        ****     TIA_1_Start();
 113              		.loc 1 40 0
 114 000c FFF7FEFF 		bl	PGA_Inv_1_Start
 115              	.LVL5:
  41:main.c        ****     Opamp_1_Start();
 116              		.loc 1 41 0
 117 0010 FFF7FEFF 		bl	TIA_1_Start
 118              	.LVL6:
  42:main.c        ****     UART_1_ClearRxBuffer(); // Clear UART receive buffer
 119              		.loc 1 42 0
 120 0014 FFF7FEFF 		bl	Opamp_1_Start
 121              	.LVL7:
  43:main.c        ****     UART_1_ClearTxBuffer(); // Clear UART transmit buffer
 122              		.loc 1 43 0
 123 0018 FFF7FEFF 		bl	UART_1_ClearRxBuffer
 124              	.LVL8:
  44:main.c        ****     currentRxBuffer = rxBuffer1;
 125              		.loc 1 44 0
 126 001c FFF7FEFF 		bl	UART_1_ClearTxBuffer
 127              	.LVL9:
  45:main.c        ****     plotBuffer = rxBuffer2;
 128              		.loc 1 45 0
 129 0020 034A     		ldr	r2, .L11
 130 0022 044B     		ldr	r3, .L11+4
 131 0024 1A60     		str	r2, [r3]
  46:main.c        ****     //UART_1_PutChar(OneToSend); // Initial request for data
 132              		.loc 1 46 0
 133 0026 044A     		ldr	r2, .L11+8
 134 0028 044B     		ldr	r3, .L11+12
 135 002a 1A60     		str	r2, [r3]
 136 002c 08BD     		pop	{r3, pc}
 137              	.L12:
 138 002e 00BF     		.align	2
 139              	.L11:
 140 0030 00000000 		.word	rxBuffer1
 141 0034 00000000 		.word	currentRxBuffer
 142 0038 00000000 		.word	rxBuffer2
 143 003c 00000000 		.word	plotBuffer
 144              		.cfi_endproc
 145              	.LFE64:
 146              		.size	initializeComponents, .-initializeComponents
 147              		.section	.text.plotData,"ax",%progbits
 148              		.align	2
 149              		.global	plotData
 150              		.thumb
 151              		.thumb_func
 152              		.type	plotData, %function
 153              	plotData:
 154              	.LFB66:
ARM GAS  C:\Users\DELL\AppData\Local\Temp\ccMTHnYe.s 			page 5


  63:main.c        ****             }
  64:main.c        ****         }
  65:main.c        ****     }
  66:main.c        **** }
  67:main.c        **** 
  68:main.c        **** 
  69:main.c        **** void plotData(void) {
 155              		.loc 1 69 0
 156              		.cfi_startproc
 157              		@ args = 0, pretend = 0, frame = 0
 158              		@ frame_needed = 0, uses_anonymous_args = 0
 159 0000 10B5     		push	{r4, lr}
 160              		.cfi_def_cfa_offset 8
 161              		.cfi_offset 4, -8
 162              		.cfi_offset 14, -4
 163              	.LVL10:
 164              	.LBB2:
  70:main.c        ****     for (int i = 0; i < BUFFER_SIZE; i++) {
 165              		.loc 1 70 0
 166 0002 0024     		movs	r4, #0
 167 0004 0EE0     		b	.L14
 168              	.LVL11:
 169              	.L15:
  71:main.c        ****         //IDAC_1_SetValue(plotBuffer[i]); // Set IDAC value
  72:main.c        ****         IDAC_1_SetValue(77);
 170              		.loc 1 72 0 discriminator 3
 171 0006 4D20     		movs	r0, #77
 172 0008 FFF7FEFF 		bl	IDAC_1_SetValue
 173              	.LVL12:
  73:main.c        ****         CyDelayUs(2777);                     // 2 ms delay between points
 174              		.loc 1 73 0 discriminator 3
 175 000c 40F6D920 		movw	r0, #2777
 176 0010 FFF7FEFF 		bl	CyDelayUs
 177              	.LVL13:
  74:main.c        ****         IDAC_1_SetValue(0);
 178              		.loc 1 74 0 discriminator 3
 179 0014 0020     		movs	r0, #0
 180 0016 FFF7FEFF 		bl	IDAC_1_SetValue
 181              	.LVL14:
  75:main.c        ****         CyDelayUs(2777);                     // 2 ms delay between points
 182              		.loc 1 75 0 discriminator 3
 183 001a 40F6D920 		movw	r0, #2777
 184 001e FFF7FEFF 		bl	CyDelayUs
 185              	.LVL15:
  70:main.c        ****         //IDAC_1_SetValue(plotBuffer[i]); // Set IDAC value
 186              		.loc 1 70 0 discriminator 3
 187 0022 0134     		adds	r4, r4, #1
 188              	.LVL16:
 189              	.L14:
  70:main.c        ****         //IDAC_1_SetValue(plotBuffer[i]); // Set IDAC value
 190              		.loc 1 70 0 is_stmt 0 discriminator 1
 191 0024 B4F5906F 		cmp	r4, #1152
 192 0028 EDDB     		blt	.L15
 193              	.LBE2:
  76:main.c        ****     }
  77:main.c        **** }
 194              		.loc 1 77 0 is_stmt 1
ARM GAS  C:\Users\DELL\AppData\Local\Temp\ccMTHnYe.s 			page 6


 195 002a 10BD     		pop	{r4, pc}
 196              		.cfi_endproc
 197              	.LFE66:
 198              		.size	plotData, .-plotData
 199              		.section	.text.main,"ax",%progbits
 200              		.align	2
 201              		.global	main
 202              		.thumb
 203              		.thumb_func
 204              		.type	main, %function
 205              	main:
 206              	.LFB67:
  78:main.c        **** 
  79:main.c        **** int main(void) {
 207              		.loc 1 79 0
 208              		.cfi_startproc
 209              		@ args = 0, pretend = 0, frame = 0
 210              		@ frame_needed = 0, uses_anonymous_args = 0
 211 0000 08B5     		push	{r3, lr}
 212              		.cfi_def_cfa_offset 8
 213              		.cfi_offset 3, -8
 214              		.cfi_offset 14, -4
  80:main.c        ****     initializeComponents();
 215              		.loc 1 80 0
 216 0002 FFF7FEFF 		bl	initializeComponents
 217              	.LVL17:
  81:main.c        ****     isr_1_StartEx(UART_Rx_Handler); // Start UART RX ISR
 218              		.loc 1 81 0
 219 0006 0C48     		ldr	r0, .L21
 220 0008 FFF7FEFF 		bl	isr_1_StartEx
 221              	.LVL18:
 222              	.L19:
  82:main.c        ****     
  83:main.c        ****     while (1) {
  84:main.c        ****         if (bufferFilled) { // Plot data only if buffer is filled
 223              		.loc 1 84 0
 224 000c 0B4B     		ldr	r3, .L21+4
 225 000e 1B68     		ldr	r3, [r3]
 226 0010 3BB1     		cbz	r3, .L18
 227              	.LBB3:
  85:main.c        ****             // Critical section start
  86:main.c        ****             CyGlobalIntDisable; // Disable interrupts to avoid race condition
 228              		.loc 1 86 0
 229              		.syntax unified
 230              	@ 86 "main.c" 1
 231 0012 72B6     		CPSID   i
 232              	@ 0 "" 2
  87:main.c        ****             
  88:main.c        ****             // Swap buffers before plotting so that new data can be received while plotting
  89:main.c        ****             uint8_t* temp = plotBuffer;
 233              		.loc 1 89 0
 234              		.thumb
 235              		.syntax unified
 236 0014 0A4A     		ldr	r2, .L21+8
 237 0016 1168     		ldr	r1, [r2]
 238              	.LVL19:
  90:main.c        ****             plotBuffer = currentRxBuffer;
ARM GAS  C:\Users\DELL\AppData\Local\Temp\ccMTHnYe.s 			page 7


 239              		.loc 1 90 0
 240 0018 0A4B     		ldr	r3, .L21+12
 241 001a 1868     		ldr	r0, [r3]
 242 001c 1060     		str	r0, [r2]
  91:main.c        ****             currentRxBuffer = temp;
 243              		.loc 1 91 0
 244 001e 1960     		str	r1, [r3]
  92:main.c        ****             
  93:main.c        ****             CyGlobalIntEnable; // Re-enable interrupts
 245              		.loc 1 93 0
 246              		.syntax unified
 247              	@ 93 "main.c" 1
 248 0020 62B6     		CPSIE   i
 249              	@ 0 "" 2
 250              	.LVL20:
 251              		.thumb
 252              		.syntax unified
 253              	.L18:
 254              	.LBE3:
  94:main.c        ****             // Critical section end
  95:main.c        ****         }
  96:main.c        ****         
  97:main.c        ****         bufferFilled = 0; // Reset the flag to allow new data reception
 255              		.loc 1 97 0
 256 0022 0022     		movs	r2, #0
 257 0024 054B     		ldr	r3, .L21+4
 258 0026 1A60     		str	r2, [r3]
  98:main.c        ****         
  99:main.c        ****         UART_1_WriteTxData(OneToSend); // Transmit 1 byte to request the next chunk of data
 259              		.loc 1 99 0
 260 0028 074B     		ldr	r3, .L21+16
 261 002a 1878     		ldrb	r0, [r3]	@ zero_extendqisi2
 262 002c FFF7FEFF 		bl	UART_1_WriteTxData
 263              	.LVL21:
 100:main.c        ****         //CyDelay(1);
 101:main.c        ****         
 102:main.c        ****         plotData(); // Plot data from the plotBuffer
 264              		.loc 1 102 0
 265 0030 FFF7FEFF 		bl	plotData
 266              	.LVL22:
 103:main.c        ****         
 104:main.c        ****         
 105:main.c        ****     }
 267              		.loc 1 105 0
 268 0034 EAE7     		b	.L19
 269              	.L22:
 270 0036 00BF     		.align	2
 271              	.L21:
 272 0038 00000000 		.word	UART_Rx_Handler
 273 003c 00000000 		.word	.LANCHOR0
 274 0040 00000000 		.word	plotBuffer
 275 0044 00000000 		.word	currentRxBuffer
 276 0048 00000000 		.word	.LANCHOR1
 277              		.cfi_endproc
 278              	.LFE67:
 279              		.size	main, .-main
 280              		.comm	string,128,4
ARM GAS  C:\Users\DELL\AppData\Local\Temp\ccMTHnYe.s 			page 8


 281              		.global	OneToSend
 282              		.comm	count,4,4
 283              		.global	tc_count
 284              		.global	bufferFilled
 285              		.comm	receivedData,1,1
 286              		.comm	plotBuffer,4,4
 287              		.comm	currentRxBuffer,4,4
 288              		.comm	rxBuffer2,1152,4
 289              		.comm	rxBuffer1,1152,4
 290              		.data
 291              		.set	.LANCHOR1,. + 0
 292              		.type	OneToSend, %object
 293              		.size	OneToSend, 1
 294              	OneToSend:
 295 0000 01       		.byte	1
 296              		.bss
 297              		.align	2
 298              		.set	.LANCHOR0,. + 0
 299              		.type	bufferFilled, %object
 300              		.size	bufferFilled, 4
 301              	bufferFilled:
 302 0000 00000000 		.space	4
 303              		.type	index.7004, %object
 304              		.size	index.7004, 4
 305              	index.7004:
 306 0004 00000000 		.space	4
 307              		.type	tc_count, %object
 308              		.size	tc_count, 4
 309              	tc_count:
 310 0008 00000000 		.space	4
 311              		.text
 312              	.Letext0:
 313              		.file 2 "c:\\psoc creator\\4.4\\psoc creator\\import\\gnu\\arm\\5.4.1\\arm-none-eabi\\include\\mac
 314              		.file 3 "c:\\psoc creator\\4.4\\psoc creator\\import\\gnu\\arm\\5.4.1\\arm-none-eabi\\include\\sys
 315              		.file 4 "Generated_Source\\PSoC5/core_cm3.h"
 316              		.file 5 "Generated_Source\\PSoC5/isr_1.h"
 317              		.file 6 "Generated_Source\\PSoC5/UART_1.h"
 318              		.file 7 "Generated_Source\\PSoC5/IDAC_1.h"
 319              		.file 8 "Generated_Source\\PSoC5/PGA_Inv_1.h"
 320              		.file 9 "Generated_Source\\PSoC5/TIA_1.h"
 321              		.file 10 "Generated_Source\\PSoC5/Opamp_1.h"
 322              		.file 11 "Generated_Source\\PSoC5/CyLib.h"