ARM GAS  C:\Users\DELL\AppData\Local\Temp\ccgxM5Ma.s 			page 1


   1              		.syntax unified
   2              		.cpu cortex-m3
   3              		.fpu softvfp
   4              		.eabi_attribute 20, 1
   5              		.eabi_attribute 21, 1
   6              		.eabi_attribute 23, 3
   7              		.eabi_attribute 24, 1
   8              		.eabi_attribute 25, 1
   9              		.eabi_attribute 26, 1
  10              		.eabi_attribute 30, 1
  11              		.eabi_attribute 34, 1
  12              		.eabi_attribute 18, 4
  13              		.thumb
  14              		.syntax unified
  15              		.file	"PGA_Inv_1.c"
  16              		.text
  17              	.Ltext0:
  18              		.cfi_sections	.debug_frame
  19              		.section	.text.PGA_Inv_1_Enable,"ax",%progbits
  20              		.align	2
  21              		.global	PGA_Inv_1_Enable
  22              		.thumb
  23              		.thumb_func
  24              		.type	PGA_Inv_1_Enable, %function
  25              	PGA_Inv_1_Enable:
  26              	.LFB1:
  27              		.file 1 "Generated_Source\\PSoC5\\PGA_Inv_1.c"
   1:Generated_Source\PSoC5/PGA_Inv_1.c **** /*******************************************************************************
   2:Generated_Source\PSoC5/PGA_Inv_1.c **** * File Name: PGA_Inv_1.c
   3:Generated_Source\PSoC5/PGA_Inv_1.c **** * Version 2.0
   4:Generated_Source\PSoC5/PGA_Inv_1.c **** *
   5:Generated_Source\PSoC5/PGA_Inv_1.c **** * Description:
   6:Generated_Source\PSoC5/PGA_Inv_1.c **** *  This file provides the source code to the API for the inverting PGA 
   7:Generated_Source\PSoC5/PGA_Inv_1.c **** *  Component.
   8:Generated_Source\PSoC5/PGA_Inv_1.c **** *
   9:Generated_Source\PSoC5/PGA_Inv_1.c **** * Note:
  10:Generated_Source\PSoC5/PGA_Inv_1.c **** *  None
  11:Generated_Source\PSoC5/PGA_Inv_1.c **** *
  12:Generated_Source\PSoC5/PGA_Inv_1.c **** ********************************************************************************
  13:Generated_Source\PSoC5/PGA_Inv_1.c **** * Copyright 2008-2012, Cypress Semiconductor Corporation.  All rights reserved.
  14:Generated_Source\PSoC5/PGA_Inv_1.c **** * You may use this file only in accordance with the license, terms, conditions, 
  15:Generated_Source\PSoC5/PGA_Inv_1.c **** * disclaimers, and limitations in the end user license agreement accompanying 
  16:Generated_Source\PSoC5/PGA_Inv_1.c **** * the software package with which this file was provided.
  17:Generated_Source\PSoC5/PGA_Inv_1.c **** *******************************************************************************/
  18:Generated_Source\PSoC5/PGA_Inv_1.c **** 
  19:Generated_Source\PSoC5/PGA_Inv_1.c **** #include "PGA_Inv_1.h"
  20:Generated_Source\PSoC5/PGA_Inv_1.c **** 
  21:Generated_Source\PSoC5/PGA_Inv_1.c **** #if (!CY_PSOC5A)
  22:Generated_Source\PSoC5/PGA_Inv_1.c ****     #if (CYDEV_VARIABLE_VDDA == 1u)
  23:Generated_Source\PSoC5/PGA_Inv_1.c ****         #include "CyScBoostClk.h"
  24:Generated_Source\PSoC5/PGA_Inv_1.c ****     #endif /* (CYDEV_VARIABLE_VDDA == 1u) */
  25:Generated_Source\PSoC5/PGA_Inv_1.c **** #endif /* (!CY_PSOC5A) */
  26:Generated_Source\PSoC5/PGA_Inv_1.c **** 
  27:Generated_Source\PSoC5/PGA_Inv_1.c **** #if (CY_PSOC5A)
  28:Generated_Source\PSoC5/PGA_Inv_1.c ****     static PGA_Inv_1_BACKUP_STRUCT  PGA_Inv_1_P5backup;
  29:Generated_Source\PSoC5/PGA_Inv_1.c **** #endif /* (CY_PSOC5A) */
  30:Generated_Source\PSoC5/PGA_Inv_1.c **** 
ARM GAS  C:\Users\DELL\AppData\Local\Temp\ccgxM5Ma.s 			page 2


  31:Generated_Source\PSoC5/PGA_Inv_1.c **** uint8 PGA_Inv_1_initVar = 0u;
  32:Generated_Source\PSoC5/PGA_Inv_1.c **** 
  33:Generated_Source\PSoC5/PGA_Inv_1.c **** 
  34:Generated_Source\PSoC5/PGA_Inv_1.c **** 
  35:Generated_Source\PSoC5/PGA_Inv_1.c **** /*******************************************************************************   
  36:Generated_Source\PSoC5/PGA_Inv_1.c **** * Function Name: PGA_Inv_1_Init
  37:Generated_Source\PSoC5/PGA_Inv_1.c **** ********************************************************************************
  38:Generated_Source\PSoC5/PGA_Inv_1.c **** *
  39:Generated_Source\PSoC5/PGA_Inv_1.c **** * Summary:
  40:Generated_Source\PSoC5/PGA_Inv_1.c **** *  Initialize component's parameters to the parameters set by user in the 
  41:Generated_Source\PSoC5/PGA_Inv_1.c **** *  customizer of the component placed onto schematic. Usually called in 
  42:Generated_Source\PSoC5/PGA_Inv_1.c **** *  PGA_Inv_1_Start().
  43:Generated_Source\PSoC5/PGA_Inv_1.c **** *
  44:Generated_Source\PSoC5/PGA_Inv_1.c **** * Parameters:
  45:Generated_Source\PSoC5/PGA_Inv_1.c **** *  void
  46:Generated_Source\PSoC5/PGA_Inv_1.c **** *
  47:Generated_Source\PSoC5/PGA_Inv_1.c **** * Return:
  48:Generated_Source\PSoC5/PGA_Inv_1.c **** *  void
  49:Generated_Source\PSoC5/PGA_Inv_1.c **** *
  50:Generated_Source\PSoC5/PGA_Inv_1.c **** *******************************************************************************/
  51:Generated_Source\PSoC5/PGA_Inv_1.c **** void PGA_Inv_1_Init(void) 
  52:Generated_Source\PSoC5/PGA_Inv_1.c **** {
  53:Generated_Source\PSoC5/PGA_Inv_1.c ****     /* Set PGA mode */
  54:Generated_Source\PSoC5/PGA_Inv_1.c ****     PGA_Inv_1_CR0_REG = PGA_Inv_1_MODE_PGA;
  55:Generated_Source\PSoC5/PGA_Inv_1.c **** 
  56:Generated_Source\PSoC5/PGA_Inv_1.c ****     /* Set inverting PGA mode  and reference mode */
  57:Generated_Source\PSoC5/PGA_Inv_1.c ****     PGA_Inv_1_CR1_REG &= (uint8)(~PGA_Inv_1_PGA_INV);
  58:Generated_Source\PSoC5/PGA_Inv_1.c **** 
  59:Generated_Source\PSoC5/PGA_Inv_1.c ****     /* Set gain and compensation */
  60:Generated_Source\PSoC5/PGA_Inv_1.c ****     PGA_Inv_1_SetGain(PGA_Inv_1_DEFAULT_GAIN);
  61:Generated_Source\PSoC5/PGA_Inv_1.c **** 
  62:Generated_Source\PSoC5/PGA_Inv_1.c ****     /* Set power */
  63:Generated_Source\PSoC5/PGA_Inv_1.c ****     PGA_Inv_1_SetPower(PGA_Inv_1_DEFAULT_POWER);
  64:Generated_Source\PSoC5/PGA_Inv_1.c **** }
  65:Generated_Source\PSoC5/PGA_Inv_1.c **** 
  66:Generated_Source\PSoC5/PGA_Inv_1.c **** 
  67:Generated_Source\PSoC5/PGA_Inv_1.c **** /*******************************************************************************   
  68:Generated_Source\PSoC5/PGA_Inv_1.c **** * Function Name: PGA_Inv_1_Enable
  69:Generated_Source\PSoC5/PGA_Inv_1.c **** ********************************************************************************
  70:Generated_Source\PSoC5/PGA_Inv_1.c **** *
  71:Generated_Source\PSoC5/PGA_Inv_1.c **** * Summary:
  72:Generated_Source\PSoC5/PGA_Inv_1.c **** *  Enables the inverting PGA block operation
  73:Generated_Source\PSoC5/PGA_Inv_1.c **** *
  74:Generated_Source\PSoC5/PGA_Inv_1.c **** * Parameters:
  75:Generated_Source\PSoC5/PGA_Inv_1.c **** *  void
  76:Generated_Source\PSoC5/PGA_Inv_1.c **** *
  77:Generated_Source\PSoC5/PGA_Inv_1.c **** * Return:
  78:Generated_Source\PSoC5/PGA_Inv_1.c **** *  void
  79:Generated_Source\PSoC5/PGA_Inv_1.c **** *
  80:Generated_Source\PSoC5/PGA_Inv_1.c **** *******************************************************************************/
  81:Generated_Source\PSoC5/PGA_Inv_1.c **** void PGA_Inv_1_Enable(void) 
  82:Generated_Source\PSoC5/PGA_Inv_1.c **** {
  28              		.loc 1 82 0
  29              		.cfi_startproc
  30              		@ args = 0, pretend = 0, frame = 0
  31              		@ frame_needed = 0, uses_anonymous_args = 0
  32              		@ link register save eliminated.
ARM GAS  C:\Users\DELL\AppData\Local\Temp\ccgxM5Ma.s 			page 3


  83:Generated_Source\PSoC5/PGA_Inv_1.c ****     /* This is to restore the value of register CR1 and CR2 which is saved 
  84:Generated_Source\PSoC5/PGA_Inv_1.c ****       in prior to the modifications in stop() API */
  85:Generated_Source\PSoC5/PGA_Inv_1.c ****     #if (CY_PSOC5A)
  86:Generated_Source\PSoC5/PGA_Inv_1.c ****         if(PGA_Inv_1_P5backup.enableState == 1u)
  87:Generated_Source\PSoC5/PGA_Inv_1.c ****         {
  88:Generated_Source\PSoC5/PGA_Inv_1.c ****             PGA_Inv_1_CR1_REG = PGA_Inv_1_P5backup.scCR1Reg;
  89:Generated_Source\PSoC5/PGA_Inv_1.c ****             PGA_Inv_1_CR2_REG = PGA_Inv_1_P5backup.scCR2Reg;
  90:Generated_Source\PSoC5/PGA_Inv_1.c ****             PGA_Inv_1_P5backup.enableState = 0u;
  91:Generated_Source\PSoC5/PGA_Inv_1.c ****         }
  92:Generated_Source\PSoC5/PGA_Inv_1.c ****     #endif /* CY_PSOC5A */
  93:Generated_Source\PSoC5/PGA_Inv_1.c ****     
  94:Generated_Source\PSoC5/PGA_Inv_1.c ****     /* Enable power to the Amp in Active mode */
  95:Generated_Source\PSoC5/PGA_Inv_1.c ****     PGA_Inv_1_PM_ACT_CFG_REG |= PGA_Inv_1_ACT_PWR_EN;
  33              		.loc 1 95 0
  34 0000 084A     		ldr	r2, .L2
  35 0002 1378     		ldrb	r3, [r2]	@ zero_extendqisi2
  36 0004 43F00203 		orr	r3, r3, #2
  37 0008 1370     		strb	r3, [r2]
  96:Generated_Source\PSoC5/PGA_Inv_1.c **** 
  97:Generated_Source\PSoC5/PGA_Inv_1.c ****     /* Enable power to the Amp in Alternative active mode  */
  98:Generated_Source\PSoC5/PGA_Inv_1.c ****     PGA_Inv_1_PM_STBY_CFG_REG |= PGA_Inv_1_STBY_PWR_EN;
  38              		.loc 1 98 0
  39 000a 1032     		adds	r2, r2, #16
  40 000c 1378     		ldrb	r3, [r2]	@ zero_extendqisi2
  41 000e 43F00203 		orr	r3, r3, #2
  42 0012 1370     		strb	r3, [r2]
  99:Generated_Source\PSoC5/PGA_Inv_1.c ****     
 100:Generated_Source\PSoC5/PGA_Inv_1.c ****     PGA_Inv_1_PUMP_CR1_REG |= PGA_Inv_1_PUMP_CR1_SC_CLKSEL;
  43              		.loc 1 100 0
  44 0014 02F5A552 		add	r2, r2, #5280
  45 0018 1E32     		adds	r2, r2, #30
  46 001a 1378     		ldrb	r3, [r2]	@ zero_extendqisi2
  47 001c 43F08003 		orr	r3, r3, #128
  48 0020 1370     		strb	r3, [r2]
  49 0022 7047     		bx	lr
  50              	.L3:
  51              		.align	2
  52              	.L2:
  53 0024 A9430040 		.word	1073759145
  54              		.cfi_endproc
  55              	.LFE1:
  56              		.size	PGA_Inv_1_Enable, .-PGA_Inv_1_Enable
  57              		.section	.text.PGA_Inv_1_Stop,"ax",%progbits
  58              		.align	2
  59              		.global	PGA_Inv_1_Stop
  60              		.thumb
  61              		.thumb_func
  62              		.type	PGA_Inv_1_Stop, %function
  63              	PGA_Inv_1_Stop:
  64              	.LFB3:
 101:Generated_Source\PSoC5/PGA_Inv_1.c ****     
 102:Generated_Source\PSoC5/PGA_Inv_1.c ****     #if (!CY_PSOC5A)
 103:Generated_Source\PSoC5/PGA_Inv_1.c ****         #if (CYDEV_VARIABLE_VDDA == 1u)
 104:Generated_Source\PSoC5/PGA_Inv_1.c ****             if(CyScPumpEnabled == 1u)
 105:Generated_Source\PSoC5/PGA_Inv_1.c ****             {
 106:Generated_Source\PSoC5/PGA_Inv_1.c ****                 PGA_Inv_1_BSTCLK_REG &= (uint8)(~PGA_Inv_1_BST_CLK_INDEX_MASK);
 107:Generated_Source\PSoC5/PGA_Inv_1.c ****                 PGA_Inv_1_BSTCLK_REG |= PGA_Inv_1_BST_CLK_EN | CyScBoostClk__INDEX;
ARM GAS  C:\Users\DELL\AppData\Local\Temp\ccgxM5Ma.s 			page 4


 108:Generated_Source\PSoC5/PGA_Inv_1.c ****                 PGA_Inv_1_SC_MISC_REG |= PGA_Inv_1_PUMP_FORCE;
 109:Generated_Source\PSoC5/PGA_Inv_1.c ****                 CyScBoostClk_Start();
 110:Generated_Source\PSoC5/PGA_Inv_1.c ****             }
 111:Generated_Source\PSoC5/PGA_Inv_1.c ****             else
 112:Generated_Source\PSoC5/PGA_Inv_1.c ****             {
 113:Generated_Source\PSoC5/PGA_Inv_1.c ****                 PGA_Inv_1_BSTCLK_REG &= (uint8)(~PGA_Inv_1_BST_CLK_EN);
 114:Generated_Source\PSoC5/PGA_Inv_1.c ****                 PGA_Inv_1_SC_MISC_REG &= (uint8)(~PGA_Inv_1_PUMP_FORCE);
 115:Generated_Source\PSoC5/PGA_Inv_1.c ****             }
 116:Generated_Source\PSoC5/PGA_Inv_1.c ****         #endif /* (CYDEV_VARIABLE_VDDA == 1u) */
 117:Generated_Source\PSoC5/PGA_Inv_1.c ****     #endif /* (!CY_PSOC5A) */
 118:Generated_Source\PSoC5/PGA_Inv_1.c **** }
 119:Generated_Source\PSoC5/PGA_Inv_1.c **** 
 120:Generated_Source\PSoC5/PGA_Inv_1.c **** 
 121:Generated_Source\PSoC5/PGA_Inv_1.c **** /*******************************************************************************
 122:Generated_Source\PSoC5/PGA_Inv_1.c **** * Function Name: PGA_Inv_1_Start
 123:Generated_Source\PSoC5/PGA_Inv_1.c **** ********************************************************************************
 124:Generated_Source\PSoC5/PGA_Inv_1.c **** *
 125:Generated_Source\PSoC5/PGA_Inv_1.c **** * Summary:
 126:Generated_Source\PSoC5/PGA_Inv_1.c **** *  The start function initializes the inverting PGA with the default values,
 127:Generated_Source\PSoC5/PGA_Inv_1.c **** *  and sets the power to the given level.A power level of 0, is the same as
 128:Generated_Source\PSoC5/PGA_Inv_1.c **** *  executing the stop function.
 129:Generated_Source\PSoC5/PGA_Inv_1.c **** *
 130:Generated_Source\PSoC5/PGA_Inv_1.c **** * Parameters:
 131:Generated_Source\PSoC5/PGA_Inv_1.c **** *  void
 132:Generated_Source\PSoC5/PGA_Inv_1.c **** *
 133:Generated_Source\PSoC5/PGA_Inv_1.c **** * Return:
 134:Generated_Source\PSoC5/PGA_Inv_1.c **** *  void
 135:Generated_Source\PSoC5/PGA_Inv_1.c **** *
 136:Generated_Source\PSoC5/PGA_Inv_1.c **** * Theory:
 137:Generated_Source\PSoC5/PGA_Inv_1.c **** *  This function modifies the global variable PGA_Inv_1_initVar: which 
 138:Generated_Source\PSoC5/PGA_Inv_1.c **** *  defines where component's configuration are taken from the customizer 
 139:Generated_Source\PSoC5/PGA_Inv_1.c **** *  (equals 0) or parameters changed by API will be used instead (equals 1).
 140:Generated_Source\PSoC5/PGA_Inv_1.c **** *
 141:Generated_Source\PSoC5/PGA_Inv_1.c **** *******************************************************************************/
 142:Generated_Source\PSoC5/PGA_Inv_1.c **** void PGA_Inv_1_Start(void) 
 143:Generated_Source\PSoC5/PGA_Inv_1.c **** {
 144:Generated_Source\PSoC5/PGA_Inv_1.c **** 
 145:Generated_Source\PSoC5/PGA_Inv_1.c ****     if(PGA_Inv_1_initVar == 0u)
 146:Generated_Source\PSoC5/PGA_Inv_1.c ****     {
 147:Generated_Source\PSoC5/PGA_Inv_1.c ****         PGA_Inv_1_initVar = 1u;
 148:Generated_Source\PSoC5/PGA_Inv_1.c ****         PGA_Inv_1_Init();
 149:Generated_Source\PSoC5/PGA_Inv_1.c ****     }
 150:Generated_Source\PSoC5/PGA_Inv_1.c ****     
 151:Generated_Source\PSoC5/PGA_Inv_1.c ****     PGA_Inv_1_Enable();
 152:Generated_Source\PSoC5/PGA_Inv_1.c **** }
 153:Generated_Source\PSoC5/PGA_Inv_1.c **** 
 154:Generated_Source\PSoC5/PGA_Inv_1.c **** 
 155:Generated_Source\PSoC5/PGA_Inv_1.c **** /*******************************************************************************
 156:Generated_Source\PSoC5/PGA_Inv_1.c **** * Function Name: PGA_Inv_1_Stop
 157:Generated_Source\PSoC5/PGA_Inv_1.c **** ********************************************************************************
 158:Generated_Source\PSoC5/PGA_Inv_1.c **** *
 159:Generated_Source\PSoC5/PGA_Inv_1.c **** * Summary:
 160:Generated_Source\PSoC5/PGA_Inv_1.c **** *  Powers down amplifier to lowest power state.
 161:Generated_Source\PSoC5/PGA_Inv_1.c **** *
 162:Generated_Source\PSoC5/PGA_Inv_1.c **** * Parameters:
 163:Generated_Source\PSoC5/PGA_Inv_1.c **** *  void
 164:Generated_Source\PSoC5/PGA_Inv_1.c **** *
ARM GAS  C:\Users\DELL\AppData\Local\Temp\ccgxM5Ma.s 			page 5


 165:Generated_Source\PSoC5/PGA_Inv_1.c **** * Return:
 166:Generated_Source\PSoC5/PGA_Inv_1.c **** *  void 
 167:Generated_Source\PSoC5/PGA_Inv_1.c **** *
 168:Generated_Source\PSoC5/PGA_Inv_1.c **** *******************************************************************************/
 169:Generated_Source\PSoC5/PGA_Inv_1.c **** void PGA_Inv_1_Stop(void) 
 170:Generated_Source\PSoC5/PGA_Inv_1.c **** {
  65              		.loc 1 170 0
  66              		.cfi_startproc
  67              		@ args = 0, pretend = 0, frame = 0
  68              		@ frame_needed = 0, uses_anonymous_args = 0
  69              		@ link register save eliminated.
 171:Generated_Source\PSoC5/PGA_Inv_1.c ****     /* Disble power to the Amp in Active mode*/
 172:Generated_Source\PSoC5/PGA_Inv_1.c ****     PGA_Inv_1_PM_ACT_CFG_REG &= (uint8)(~PGA_Inv_1_ACT_PWR_EN);
  70              		.loc 1 172 0
  71 0000 054A     		ldr	r2, .L5
  72 0002 1378     		ldrb	r3, [r2]	@ zero_extendqisi2
  73 0004 03F0FD03 		and	r3, r3, #253
  74 0008 1370     		strb	r3, [r2]
 173:Generated_Source\PSoC5/PGA_Inv_1.c **** 
 174:Generated_Source\PSoC5/PGA_Inv_1.c ****     /* Disble power to the Amp in Alternative active mode*/
 175:Generated_Source\PSoC5/PGA_Inv_1.c ****     PGA_Inv_1_PM_STBY_CFG_REG &= (uint8)(~PGA_Inv_1_STBY_PWR_EN);
  75              		.loc 1 175 0
  76 000a 1032     		adds	r2, r2, #16
  77 000c 1378     		ldrb	r3, [r2]	@ zero_extendqisi2
  78 000e 03F0FD03 		and	r3, r3, #253
  79 0012 1370     		strb	r3, [r2]
  80 0014 7047     		bx	lr
  81              	.L6:
  82 0016 00BF     		.align	2
  83              	.L5:
  84 0018 A9430040 		.word	1073759145
  85              		.cfi_endproc
  86              	.LFE3:
  87              		.size	PGA_Inv_1_Stop, .-PGA_Inv_1_Stop
  88              		.section	.text.PGA_Inv_1_SetPower,"ax",%progbits
  89              		.align	2
  90              		.global	PGA_Inv_1_SetPower
  91              		.thumb
  92              		.thumb_func
  93              		.type	PGA_Inv_1_SetPower, %function
  94              	PGA_Inv_1_SetPower:
  95              	.LFB4:
 176:Generated_Source\PSoC5/PGA_Inv_1.c **** 
 177:Generated_Source\PSoC5/PGA_Inv_1.c ****     #if (!CY_PSOC5A)
 178:Generated_Source\PSoC5/PGA_Inv_1.c ****         #if (CYDEV_VARIABLE_VDDA == 1u)
 179:Generated_Source\PSoC5/PGA_Inv_1.c ****             PGA_Inv_1_BSTCLK_REG &= (uint8)(~PGA_Inv_1_BST_CLK_EN);
 180:Generated_Source\PSoC5/PGA_Inv_1.c ****             /* Disable pumps only if there aren't any SC block in use */
 181:Generated_Source\PSoC5/PGA_Inv_1.c ****             if ((PGA_Inv_1_PM_ACT_CFG_REG & PGA_Inv_1_PM_ACT_CFG_MASK) == 0u)
 182:Generated_Source\PSoC5/PGA_Inv_1.c ****             {
 183:Generated_Source\PSoC5/PGA_Inv_1.c ****                 PGA_Inv_1_SC_MISC_REG &= (uint8)(~PGA_Inv_1_PUMP_FORCE);
 184:Generated_Source\PSoC5/PGA_Inv_1.c ****                 PGA_Inv_1_PUMP_CR1_REG &= (uint8)(~PGA_Inv_1_PUMP_CR1_SC_CLKSEL);
 185:Generated_Source\PSoC5/PGA_Inv_1.c ****                 CyScBoostClk_Stop();
 186:Generated_Source\PSoC5/PGA_Inv_1.c ****             }
 187:Generated_Source\PSoC5/PGA_Inv_1.c ****         #endif /* CYDEV_VARIABLE_VDDA == 1u */
 188:Generated_Source\PSoC5/PGA_Inv_1.c ****     #endif /* (CY_PSOC3 || CY_PSOC5LP) */
 189:Generated_Source\PSoC5/PGA_Inv_1.c ****     
 190:Generated_Source\PSoC5/PGA_Inv_1.c ****     /* This sets PGA in zero current mode and output routes are valid */
ARM GAS  C:\Users\DELL\AppData\Local\Temp\ccgxM5Ma.s 			page 6


 191:Generated_Source\PSoC5/PGA_Inv_1.c ****     #if (CY_PSOC5A)
 192:Generated_Source\PSoC5/PGA_Inv_1.c ****         PGA_Inv_1_P5backup.scCR1Reg = PGA_Inv_1_CR1_REG;
 193:Generated_Source\PSoC5/PGA_Inv_1.c ****         PGA_Inv_1_P5backup.scCR2Reg = PGA_Inv_1_CR2_REG;
 194:Generated_Source\PSoC5/PGA_Inv_1.c ****         PGA_Inv_1_CR1_REG = 0x00u;
 195:Generated_Source\PSoC5/PGA_Inv_1.c ****         PGA_Inv_1_CR2_REG = 0x00u;
 196:Generated_Source\PSoC5/PGA_Inv_1.c ****         PGA_Inv_1_P5backup.enableState = 1u;
 197:Generated_Source\PSoC5/PGA_Inv_1.c ****     #endif /* CY_PSOC5A */
 198:Generated_Source\PSoC5/PGA_Inv_1.c **** }
 199:Generated_Source\PSoC5/PGA_Inv_1.c **** 
 200:Generated_Source\PSoC5/PGA_Inv_1.c **** 
 201:Generated_Source\PSoC5/PGA_Inv_1.c **** /*******************************************************************************
 202:Generated_Source\PSoC5/PGA_Inv_1.c **** * Function Name: PGA_Inv_1_SetPower
 203:Generated_Source\PSoC5/PGA_Inv_1.c **** ********************************************************************************
 204:Generated_Source\PSoC5/PGA_Inv_1.c **** *
 205:Generated_Source\PSoC5/PGA_Inv_1.c **** * Summary:
 206:Generated_Source\PSoC5/PGA_Inv_1.c **** *  Set the power of the inverting PGA
 207:Generated_Source\PSoC5/PGA_Inv_1.c **** *
 208:Generated_Source\PSoC5/PGA_Inv_1.c **** * Parameters:
 209:Generated_Source\PSoC5/PGA_Inv_1.c **** *  power:  Sets power level between (0) and (3) high power
 210:Generated_Source\PSoC5/PGA_Inv_1.c **** *
 211:Generated_Source\PSoC5/PGA_Inv_1.c **** * Return:
 212:Generated_Source\PSoC5/PGA_Inv_1.c **** *  void 
 213:Generated_Source\PSoC5/PGA_Inv_1.c **** *
 214:Generated_Source\PSoC5/PGA_Inv_1.c **** *******************************************************************************/
 215:Generated_Source\PSoC5/PGA_Inv_1.c **** void PGA_Inv_1_SetPower(uint8 power) 
 216:Generated_Source\PSoC5/PGA_Inv_1.c **** {
  96              		.loc 1 216 0
  97              		.cfi_startproc
  98              		@ args = 0, pretend = 0, frame = 0
  99              		@ frame_needed = 0, uses_anonymous_args = 0
 100              		@ link register save eliminated.
 101              	.LVL0:
 217:Generated_Source\PSoC5/PGA_Inv_1.c ****     uint8 tmpCR;
 218:Generated_Source\PSoC5/PGA_Inv_1.c **** 
 219:Generated_Source\PSoC5/PGA_Inv_1.c ****     tmpCR = PGA_Inv_1_CR1_REG & (uint8)(~PGA_Inv_1_DRIVE_MASK);
 102              		.loc 1 219 0
 103 0000 044A     		ldr	r2, .L8
 104 0002 1378     		ldrb	r3, [r2]	@ zero_extendqisi2
 105 0004 03F0FC03 		and	r3, r3, #252
 106              	.LVL1:
 220:Generated_Source\PSoC5/PGA_Inv_1.c ****     tmpCR |= (power & PGA_Inv_1_DRIVE_MASK);
 107              		.loc 1 220 0
 108 0008 00F00300 		and	r0, r0, #3
 109              	.LVL2:
 110 000c 1843     		orrs	r0, r0, r3
 111              	.LVL3:
 221:Generated_Source\PSoC5/PGA_Inv_1.c ****     PGA_Inv_1_CR1_REG = tmpCR;
 112              		.loc 1 221 0
 113 000e 1070     		strb	r0, [r2]
 114 0010 7047     		bx	lr
 115              	.L9:
 116 0012 00BF     		.align	2
 117              	.L8:
 118 0014 05580040 		.word	1073764357
 119              		.cfi_endproc
 120              	.LFE4:
 121              		.size	PGA_Inv_1_SetPower, .-PGA_Inv_1_SetPower
ARM GAS  C:\Users\DELL\AppData\Local\Temp\ccgxM5Ma.s 			page 7


 122              		.section	.text.PGA_Inv_1_SetGain,"ax",%progbits
 123              		.align	2
 124              		.global	PGA_Inv_1_SetGain
 125              		.thumb
 126              		.thumb_func
 127              		.type	PGA_Inv_1_SetGain, %function
 128              	PGA_Inv_1_SetGain:
 129              	.LFB5:
 222:Generated_Source\PSoC5/PGA_Inv_1.c **** }
 223:Generated_Source\PSoC5/PGA_Inv_1.c **** 
 224:Generated_Source\PSoC5/PGA_Inv_1.c **** 
 225:Generated_Source\PSoC5/PGA_Inv_1.c **** /*******************************************************************************
 226:Generated_Source\PSoC5/PGA_Inv_1.c **** * Function Name: PGA_Inv_1_SetGain
 227:Generated_Source\PSoC5/PGA_Inv_1.c **** ********************************************************************************
 228:Generated_Source\PSoC5/PGA_Inv_1.c **** *
 229:Generated_Source\PSoC5/PGA_Inv_1.c **** * Summary:
 230:Generated_Source\PSoC5/PGA_Inv_1.c **** *  This function sets values of the input and feedback resistors to set a 
 231:Generated_Source\PSoC5/PGA_Inv_1.c **** *  specific gain of the amplifier.
 232:Generated_Source\PSoC5/PGA_Inv_1.c **** *
 233:Generated_Source\PSoC5/PGA_Inv_1.c **** * Parameters:
 234:Generated_Source\PSoC5/PGA_Inv_1.c **** *  gain: Sets gain of amplifier.
 235:Generated_Source\PSoC5/PGA_Inv_1.c **** *
 236:Generated_Source\PSoC5/PGA_Inv_1.c **** * Return:
 237:Generated_Source\PSoC5/PGA_Inv_1.c **** *  void
 238:Generated_Source\PSoC5/PGA_Inv_1.c **** *
 239:Generated_Source\PSoC5/PGA_Inv_1.c **** *******************************************************************************/
 240:Generated_Source\PSoC5/PGA_Inv_1.c **** void PGA_Inv_1_SetGain(uint8 gain) 
 241:Generated_Source\PSoC5/PGA_Inv_1.c **** {
 130              		.loc 1 241 0
 131              		.cfi_startproc
 132              		@ args = 0, pretend = 0, frame = 24
 133              		@ frame_needed = 0, uses_anonymous_args = 0
 134              		@ link register save eliminated.
 135              	.LVL4:
 136 0000 10B4     		push	{r4}
 137              		.cfi_def_cfa_offset 4
 138              		.cfi_offset 4, -4
 139 0002 87B0     		sub	sp, sp, #28
 140              		.cfi_def_cfa_offset 32
 141 0004 0446     		mov	r4, r0
 242:Generated_Source\PSoC5/PGA_Inv_1.c ****     /* Constant array for gain settings */
 243:Generated_Source\PSoC5/PGA_Inv_1.c ****     const uint8 PGA_Inv_1_GainArray[9] = { 
 142              		.loc 1 243 0
 143 0006 194B     		ldr	r3, .L13
 144 0008 03AA     		add	r2, sp, #12
 145 000a 1868     		ldr	r0, [r3]	@ unaligned
 146              	.LVL5:
 147 000c 5968     		ldr	r1, [r3, #4]	@ unaligned
 148 000e 03C2     		stmia	r2!, {r0, r1}
 149 0010 197A     		ldrb	r1, [r3, #8]	@ zero_extendqisi2
 150 0012 1170     		strb	r1, [r2]
 244:Generated_Source\PSoC5/PGA_Inv_1.c ****         (PGA_Inv_1_PGA_INV_GAIN_01 | PGA_Inv_1_BIAS_LOW), /* G=-1  */
 245:Generated_Source\PSoC5/PGA_Inv_1.c ****         (PGA_Inv_1_PGA_INV_GAIN_03 | PGA_Inv_1_BIAS_LOW), /* G=-3  */
 246:Generated_Source\PSoC5/PGA_Inv_1.c ****         (PGA_Inv_1_PGA_INV_GAIN_07 | PGA_Inv_1_BIAS_LOW), /* G=-7  */
 247:Generated_Source\PSoC5/PGA_Inv_1.c ****         (PGA_Inv_1_PGA_INV_GAIN_15 | PGA_Inv_1_BIAS_LOW), /* G=-15 */
 248:Generated_Source\PSoC5/PGA_Inv_1.c ****         (PGA_Inv_1_PGA_INV_GAIN_22 | PGA_Inv_1_BIAS_LOW), /* G=-22 */
 249:Generated_Source\PSoC5/PGA_Inv_1.c ****         (PGA_Inv_1_PGA_INV_GAIN_24 | PGA_Inv_1_BIAS_LOW), /* G=-24 */
ARM GAS  C:\Users\DELL\AppData\Local\Temp\ccgxM5Ma.s 			page 8


 250:Generated_Source\PSoC5/PGA_Inv_1.c ****         (PGA_Inv_1_PGA_INV_GAIN_31 | PGA_Inv_1_BIAS_LOW), /* G=-31 */
 251:Generated_Source\PSoC5/PGA_Inv_1.c ****         (PGA_Inv_1_PGA_INV_GAIN_47 | PGA_Inv_1_BIAS_LOW), /* G=-47 */
 252:Generated_Source\PSoC5/PGA_Inv_1.c ****         (PGA_Inv_1_PGA_INV_GAIN_49 | PGA_Inv_1_BIAS_LOW)  /* G=-49 */
 253:Generated_Source\PSoC5/PGA_Inv_1.c ****     };
 254:Generated_Source\PSoC5/PGA_Inv_1.c **** 
 255:Generated_Source\PSoC5/PGA_Inv_1.c ****     /* Constant array for gain compenstion settings */
 256:Generated_Source\PSoC5/PGA_Inv_1.c ****     const uint8 PGA_Inv_1_GainComp[9] = { 
 151              		.loc 1 256 0
 152 0014 6A46     		mov	r2, sp
 153 0016 53F80C0F 		ldr	r0, [r3, #12]!	@ unaligned
 154 001a 5968     		ldr	r1, [r3, #4]	@ unaligned
 155 001c 03C2     		stmia	r2!, {r0, r1}
 156 001e 1B7A     		ldrb	r3, [r3, #8]	@ zero_extendqisi2
 157 0020 1370     		strb	r3, [r2]
 257:Generated_Source\PSoC5/PGA_Inv_1.c ****         ( PGA_Inv_1_COMP_4P35PF  | (uint8)( PGA_Inv_1_REDC_00 >> 2 )), /* G=-1  */
 258:Generated_Source\PSoC5/PGA_Inv_1.c ****         ( PGA_Inv_1_COMP_4P35PF  | (uint8)( PGA_Inv_1_REDC_01 >> 2 )), /* G=-3  */
 259:Generated_Source\PSoC5/PGA_Inv_1.c ****         ( PGA_Inv_1_COMP_3P0PF   | (uint8)( PGA_Inv_1_REDC_01 >> 2 )), /* G=-7  */
 260:Generated_Source\PSoC5/PGA_Inv_1.c ****         ( PGA_Inv_1_COMP_3P0PF   | (uint8)( PGA_Inv_1_REDC_01 >> 2 )), /* G=-15 */
 261:Generated_Source\PSoC5/PGA_Inv_1.c ****         ( PGA_Inv_1_COMP_3P6PF   | (uint8)( PGA_Inv_1_REDC_01 >> 2 )), /* G=-22 */
 262:Generated_Source\PSoC5/PGA_Inv_1.c ****         ( PGA_Inv_1_COMP_3P0PF   | (uint8)( PGA_Inv_1_REDC_10 >> 2 )), /* G=-24 */
 263:Generated_Source\PSoC5/PGA_Inv_1.c ****         ( PGA_Inv_1_COMP_3P6PF   | (uint8)( PGA_Inv_1_REDC_11 >> 2 )), /* G=-31 */
 264:Generated_Source\PSoC5/PGA_Inv_1.c ****         ( PGA_Inv_1_COMP_3P6PF   | (uint8)( PGA_Inv_1_REDC_00 >> 2 )), /* G=-47 */
 265:Generated_Source\PSoC5/PGA_Inv_1.c ****         ( PGA_Inv_1_COMP_3P6PF   | (uint8)( PGA_Inv_1_REDC_00 >> 2 ))  /* G=-49 */
 266:Generated_Source\PSoC5/PGA_Inv_1.c ****     };
 267:Generated_Source\PSoC5/PGA_Inv_1.c ****     
 268:Generated_Source\PSoC5/PGA_Inv_1.c ****     
 269:Generated_Source\PSoC5/PGA_Inv_1.c ****     /* Only set new gain if it is a valid gain */
 270:Generated_Source\PSoC5/PGA_Inv_1.c ****     if( gain <= PGA_Inv_1_GAIN_MAX)
 158              		.loc 1 270 0
 159 0022 082C     		cmp	r4, #8
 160 0024 1ED8     		bhi	.L10
 271:Generated_Source\PSoC5/PGA_Inv_1.c ****     {
 272:Generated_Source\PSoC5/PGA_Inv_1.c ****         /* Clear resistors, redc, and bias */
 273:Generated_Source\PSoC5/PGA_Inv_1.c ****         PGA_Inv_1_CR2_REG &= (uint8)(~(PGA_Inv_1_RVAL_MASK | PGA_Inv_1_R20_40B_MASK | 
 161              		.loc 1 273 0
 162 0026 1249     		ldr	r1, .L13+4
 163 0028 0B78     		ldrb	r3, [r1]	@ zero_extendqisi2
 164 002a 03F08003 		and	r3, r3, #128
 165 002e DBB2     		uxtb	r3, r3
 166 0030 0B70     		strb	r3, [r1]
 274:Generated_Source\PSoC5/PGA_Inv_1.c ****                                       PGA_Inv_1_REDC_MASK | PGA_Inv_1_BIAS_MASK ));
 275:Generated_Source\PSoC5/PGA_Inv_1.c **** 
 276:Generated_Source\PSoC5/PGA_Inv_1.c ****         /* Set gain value resistors, redc comp, and bias */
 277:Generated_Source\PSoC5/PGA_Inv_1.c ****         PGA_Inv_1_CR2_REG |= (PGA_Inv_1_GainArray[gain] |
 167              		.loc 1 277 0
 168 0032 0878     		ldrb	r0, [r1]	@ zero_extendqisi2
 169 0034 06AB     		add	r3, sp, #24
 170 0036 1C44     		add	r4, r4, r3
 171 0038 14F80C3C 		ldrb	r3, [r4, #-12]	@ zero_extendqisi2
 278:Generated_Source\PSoC5/PGA_Inv_1.c ****                                 ( (uint8)(PGA_Inv_1_GainComp[gain] << 2 ) & PGA_Inv_1_REDC_MASK) );
 172              		.loc 1 278 0
 173 003c 14F8182C 		ldrb	r2, [r4, #-24]	@ zero_extendqisi2
 174 0040 9200     		lsls	r2, r2, #2
 277:Generated_Source\PSoC5/PGA_Inv_1.c ****                                 ( (uint8)(PGA_Inv_1_GainComp[gain] << 2 ) & PGA_Inv_1_REDC_MASK) );
 175              		.loc 1 277 0
 176 0042 02F00C02 		and	r2, r2, #12
 177 0046 1343     		orrs	r3, r3, r2
ARM GAS  C:\Users\DELL\AppData\Local\Temp\ccgxM5Ma.s 			page 9


 178 0048 0343     		orrs	r3, r3, r0
 179 004a 0B70     		strb	r3, [r1]
 279:Generated_Source\PSoC5/PGA_Inv_1.c **** 
 280:Generated_Source\PSoC5/PGA_Inv_1.c ****         /* Clear sc_comp  */
 281:Generated_Source\PSoC5/PGA_Inv_1.c ****         PGA_Inv_1_CR1_REG &= (uint8)(~PGA_Inv_1_COMP_MASK);
 180              		.loc 1 281 0
 181 004c 094A     		ldr	r2, .L13+8
 182 004e 1378     		ldrb	r3, [r2]	@ zero_extendqisi2
 183 0050 03F0F303 		and	r3, r3, #243
 184 0054 1370     		strb	r3, [r2]
 282:Generated_Source\PSoC5/PGA_Inv_1.c **** 
 283:Generated_Source\PSoC5/PGA_Inv_1.c ****         /* Set sc_comp  */
 284:Generated_Source\PSoC5/PGA_Inv_1.c ****         PGA_Inv_1_CR1_REG |= ( PGA_Inv_1_GainComp[gain] | PGA_Inv_1_COMP_MASK );
 185              		.loc 1 284 0
 186 0056 1178     		ldrb	r1, [r2]	@ zero_extendqisi2
 187 0058 14F8183C 		ldrb	r3, [r4, #-24]	@ zero_extendqisi2
 188 005c 0B43     		orrs	r3, r3, r1
 189 005e 43F00C03 		orr	r3, r3, #12
 190 0062 1370     		strb	r3, [r2]
 191              	.L10:
 285:Generated_Source\PSoC5/PGA_Inv_1.c ****     }
 286:Generated_Source\PSoC5/PGA_Inv_1.c **** }
 192              		.loc 1 286 0
 193 0064 07B0     		add	sp, sp, #28
 194              		.cfi_def_cfa_offset 4
 195              		@ sp needed
 196 0066 10BC     		pop	{r4}
 197              		.cfi_restore 4
 198              		.cfi_def_cfa_offset 0
 199 0068 7047     		bx	lr
 200              	.L14:
 201 006a 00BF     		.align	2
 202              	.L13:
 203 006c 00000000 		.word	.LANCHOR0
 204 0070 06580040 		.word	1073764358
 205 0074 05580040 		.word	1073764357
 206              		.cfi_endproc
 207              	.LFE5:
 208              		.size	PGA_Inv_1_SetGain, .-PGA_Inv_1_SetGain
 209              		.section	.text.PGA_Inv_1_Init,"ax",%progbits
 210              		.align	2
 211              		.global	PGA_Inv_1_Init
 212              		.thumb
 213              		.thumb_func
 214              		.type	PGA_Inv_1_Init, %function
 215              	PGA_Inv_1_Init:
 216              	.LFB0:
  52:Generated_Source\PSoC5/PGA_Inv_1.c ****     /* Set PGA mode */
 217              		.loc 1 52 0
 218              		.cfi_startproc
 219              		@ args = 0, pretend = 0, frame = 0
 220              		@ frame_needed = 0, uses_anonymous_args = 0
 221 0000 08B5     		push	{r3, lr}
 222              		.cfi_def_cfa_offset 8
 223              		.cfi_offset 3, -8
 224              		.cfi_offset 14, -4
  54:Generated_Source\PSoC5/PGA_Inv_1.c **** 
ARM GAS  C:\Users\DELL\AppData\Local\Temp\ccgxM5Ma.s 			page 10


 225              		.loc 1 54 0
 226 0002 0C22     		movs	r2, #12
 227 0004 064B     		ldr	r3, .L17
 228 0006 1A70     		strb	r2, [r3]
  57:Generated_Source\PSoC5/PGA_Inv_1.c **** 
 229              		.loc 1 57 0
 230 0008 064A     		ldr	r2, .L17+4
 231 000a 1378     		ldrb	r3, [r2]	@ zero_extendqisi2
 232 000c DBB2     		uxtb	r3, r3
 233 000e 1370     		strb	r3, [r2]
  60:Generated_Source\PSoC5/PGA_Inv_1.c **** 
 234              		.loc 1 60 0
 235 0010 0020     		movs	r0, #0
 236 0012 FFF7FEFF 		bl	PGA_Inv_1_SetGain
 237              	.LVL6:
  63:Generated_Source\PSoC5/PGA_Inv_1.c **** }
 238              		.loc 1 63 0
 239 0016 0220     		movs	r0, #2
 240 0018 FFF7FEFF 		bl	PGA_Inv_1_SetPower
 241              	.LVL7:
 242 001c 08BD     		pop	{r3, pc}
 243              	.L18:
 244 001e 00BF     		.align	2
 245              	.L17:
 246 0020 04580040 		.word	1073764356
 247 0024 05580040 		.word	1073764357
 248              		.cfi_endproc
 249              	.LFE0:
 250              		.size	PGA_Inv_1_Init, .-PGA_Inv_1_Init
 251              		.section	.text.PGA_Inv_1_Start,"ax",%progbits
 252              		.align	2
 253              		.global	PGA_Inv_1_Start
 254              		.thumb
 255              		.thumb_func
 256              		.type	PGA_Inv_1_Start, %function
 257              	PGA_Inv_1_Start:
 258              	.LFB2:
 143:Generated_Source\PSoC5/PGA_Inv_1.c **** 
 259              		.loc 1 143 0
 260              		.cfi_startproc
 261              		@ args = 0, pretend = 0, frame = 0
 262              		@ frame_needed = 0, uses_anonymous_args = 0
 263 0000 08B5     		push	{r3, lr}
 264              		.cfi_def_cfa_offset 8
 265              		.cfi_offset 3, -8
 266              		.cfi_offset 14, -4
 145:Generated_Source\PSoC5/PGA_Inv_1.c ****     {
 267              		.loc 1 145 0
 268 0002 054B     		ldr	r3, .L22
 269 0004 1B78     		ldrb	r3, [r3]	@ zero_extendqisi2
 270 0006 23B9     		cbnz	r3, .L20
 147:Generated_Source\PSoC5/PGA_Inv_1.c ****         PGA_Inv_1_Init();
 271              		.loc 1 147 0
 272 0008 0122     		movs	r2, #1
 273 000a 034B     		ldr	r3, .L22
 274 000c 1A70     		strb	r2, [r3]
 148:Generated_Source\PSoC5/PGA_Inv_1.c ****     }
ARM GAS  C:\Users\DELL\AppData\Local\Temp\ccgxM5Ma.s 			page 11


 275              		.loc 1 148 0
 276 000e FFF7FEFF 		bl	PGA_Inv_1_Init
 277              	.LVL8:
 278              	.L20:
 151:Generated_Source\PSoC5/PGA_Inv_1.c **** }
 279              		.loc 1 151 0
 280 0012 FFF7FEFF 		bl	PGA_Inv_1_Enable
 281              	.LVL9:
 282 0016 08BD     		pop	{r3, pc}
 283              	.L23:
 284              		.align	2
 285              	.L22:
 286 0018 00000000 		.word	.LANCHOR1
 287              		.cfi_endproc
 288              	.LFE2:
 289              		.size	PGA_Inv_1_Start, .-PGA_Inv_1_Start
 290              		.global	PGA_Inv_1_initVar
 291              		.section	.rodata
 292              		.align	2
 293              		.set	.LANCHOR0,. + 0
 294              	.LC0:
 295 0000 11       		.byte	17
 296 0001 21       		.byte	33
 297 0002 31       		.byte	49
 298 0003 41       		.byte	65
 299 0004 51       		.byte	81
 300 0005 71       		.byte	113
 301 0006 53       		.byte	83
 302 0007 63       		.byte	99
 303 0008 73       		.byte	115
 304 0009 000000   		.space	3
 305              	.LC1:
 306 000c 08       		.byte	8
 307 000d 09       		.byte	9
 308 000e 01       		.byte	1
 309 000f 01       		.byte	1
 310 0010 05       		.byte	5
 311 0011 02       		.byte	2
 312 0012 07       		.byte	7
 313 0013 04       		.byte	4
 314 0014 04       		.byte	4
 315              		.bss
 316              		.set	.LANCHOR1,. + 0
 317              		.type	PGA_Inv_1_initVar, %object
 318              		.size	PGA_Inv_1_initVar, 1
 319              	PGA_Inv_1_initVar:
 320 0000 00       		.space	1
 321              		.text
 322              	.Letext0:
 323              		.file 2 "Generated_Source\\PSoC5\\cytypes.h"