ARM GAS  C:\Users\DELL\AppData\Local\Temp\cc7AnBD9.s 			page 1


   1              		.syntax unified
   2              		.cpu cortex-m3
   3              		.fpu softvfp
   4              		.eabi_attribute 20, 1
   5              		.eabi_attribute 21, 1
   6              		.eabi_attribute 23, 3
   7              		.eabi_attribute 24, 1
   8              		.eabi_attribute 25, 1
   9              		.eabi_attribute 26, 1
  10              		.eabi_attribute 30, 1
  11              		.eabi_attribute 34, 1
  12              		.eabi_attribute 18, 4
  13              		.thumb
  14              		.syntax unified
  15              		.file	"UART_1.c"
  16              		.text
  17              	.Ltext0:
  18              		.cfi_sections	.debug_frame
  19              		.section	.text.UART_1_Enable,"ax",%progbits
  20              		.align	2
  21              		.global	UART_1_Enable
  22              		.thumb
  23              		.thumb_func
  24              		.type	UART_1_Enable, %function
  25              	UART_1_Enable:
  26              	.LFB2:
  27              		.file 1 "Generated_Source\\PSoC5\\UART_1.c"
   1:Generated_Source\PSoC5/UART_1.c **** /*******************************************************************************
   2:Generated_Source\PSoC5/UART_1.c **** * File Name: UART_1.c
   3:Generated_Source\PSoC5/UART_1.c **** * Version 2.50
   4:Generated_Source\PSoC5/UART_1.c **** *
   5:Generated_Source\PSoC5/UART_1.c **** * Description:
   6:Generated_Source\PSoC5/UART_1.c **** *  This file provides all API functionality of the UART component
   7:Generated_Source\PSoC5/UART_1.c **** *
   8:Generated_Source\PSoC5/UART_1.c **** * Note:
   9:Generated_Source\PSoC5/UART_1.c **** *
  10:Generated_Source\PSoC5/UART_1.c **** ********************************************************************************
  11:Generated_Source\PSoC5/UART_1.c **** * Copyright 2008-2015, Cypress Semiconductor Corporation.  All rights reserved.
  12:Generated_Source\PSoC5/UART_1.c **** * You may use this file only in accordance with the license, terms, conditions,
  13:Generated_Source\PSoC5/UART_1.c **** * disclaimers, and limitations in the end user license agreement accompanying
  14:Generated_Source\PSoC5/UART_1.c **** * the software package with which this file was provided.
  15:Generated_Source\PSoC5/UART_1.c **** *******************************************************************************/
  16:Generated_Source\PSoC5/UART_1.c **** 
  17:Generated_Source\PSoC5/UART_1.c **** #include "UART_1.h"
  18:Generated_Source\PSoC5/UART_1.c **** #if (UART_1_INTERNAL_CLOCK_USED)
  19:Generated_Source\PSoC5/UART_1.c ****     #include "UART_1_IntClock.h"
  20:Generated_Source\PSoC5/UART_1.c **** #endif /* End UART_1_INTERNAL_CLOCK_USED */
  21:Generated_Source\PSoC5/UART_1.c **** 
  22:Generated_Source\PSoC5/UART_1.c **** 
  23:Generated_Source\PSoC5/UART_1.c **** /***************************************
  24:Generated_Source\PSoC5/UART_1.c **** * Global data allocation
  25:Generated_Source\PSoC5/UART_1.c **** ***************************************/
  26:Generated_Source\PSoC5/UART_1.c **** 
  27:Generated_Source\PSoC5/UART_1.c **** uint8 UART_1_initVar = 0u;
  28:Generated_Source\PSoC5/UART_1.c **** 
  29:Generated_Source\PSoC5/UART_1.c **** #if (UART_1_TX_INTERRUPT_ENABLED && UART_1_TX_ENABLED)
  30:Generated_Source\PSoC5/UART_1.c ****     volatile uint8 UART_1_txBuffer[UART_1_TX_BUFFER_SIZE];
ARM GAS  C:\Users\DELL\AppData\Local\Temp\cc7AnBD9.s 			page 2


  31:Generated_Source\PSoC5/UART_1.c ****     volatile uint8 UART_1_txBufferRead = 0u;
  32:Generated_Source\PSoC5/UART_1.c ****     uint8 UART_1_txBufferWrite = 0u;
  33:Generated_Source\PSoC5/UART_1.c **** #endif /* (UART_1_TX_INTERRUPT_ENABLED && UART_1_TX_ENABLED) */
  34:Generated_Source\PSoC5/UART_1.c **** 
  35:Generated_Source\PSoC5/UART_1.c **** #if (UART_1_RX_INTERRUPT_ENABLED && (UART_1_RX_ENABLED || UART_1_HD_ENABLED))
  36:Generated_Source\PSoC5/UART_1.c ****     uint8 UART_1_errorStatus = 0u;
  37:Generated_Source\PSoC5/UART_1.c ****     volatile uint8 UART_1_rxBuffer[UART_1_RX_BUFFER_SIZE];
  38:Generated_Source\PSoC5/UART_1.c ****     volatile uint8 UART_1_rxBufferRead  = 0u;
  39:Generated_Source\PSoC5/UART_1.c ****     volatile uint8 UART_1_rxBufferWrite = 0u;
  40:Generated_Source\PSoC5/UART_1.c ****     volatile uint8 UART_1_rxBufferLoopDetect = 0u;
  41:Generated_Source\PSoC5/UART_1.c ****     volatile uint8 UART_1_rxBufferOverflow   = 0u;
  42:Generated_Source\PSoC5/UART_1.c ****     #if (UART_1_RXHW_ADDRESS_ENABLED)
  43:Generated_Source\PSoC5/UART_1.c ****         volatile uint8 UART_1_rxAddressMode = UART_1_RX_ADDRESS_MODE;
  44:Generated_Source\PSoC5/UART_1.c ****         volatile uint8 UART_1_rxAddressDetected = 0u;
  45:Generated_Source\PSoC5/UART_1.c ****     #endif /* (UART_1_RXHW_ADDRESS_ENABLED) */
  46:Generated_Source\PSoC5/UART_1.c **** #endif /* (UART_1_RX_INTERRUPT_ENABLED && (UART_1_RX_ENABLED || UART_1_HD_ENABLED)) */
  47:Generated_Source\PSoC5/UART_1.c **** 
  48:Generated_Source\PSoC5/UART_1.c **** 
  49:Generated_Source\PSoC5/UART_1.c **** /*******************************************************************************
  50:Generated_Source\PSoC5/UART_1.c **** * Function Name: UART_1_Start
  51:Generated_Source\PSoC5/UART_1.c **** ********************************************************************************
  52:Generated_Source\PSoC5/UART_1.c **** *
  53:Generated_Source\PSoC5/UART_1.c **** * Summary:
  54:Generated_Source\PSoC5/UART_1.c **** *  This is the preferred method to begin component operation.
  55:Generated_Source\PSoC5/UART_1.c **** *  UART_1_Start() sets the initVar variable, calls the
  56:Generated_Source\PSoC5/UART_1.c **** *  UART_1_Init() function, and then calls the
  57:Generated_Source\PSoC5/UART_1.c **** *  UART_1_Enable() function.
  58:Generated_Source\PSoC5/UART_1.c **** *
  59:Generated_Source\PSoC5/UART_1.c **** * Parameters:
  60:Generated_Source\PSoC5/UART_1.c **** *  None.
  61:Generated_Source\PSoC5/UART_1.c **** *
  62:Generated_Source\PSoC5/UART_1.c **** * Return:
  63:Generated_Source\PSoC5/UART_1.c **** *  None.
  64:Generated_Source\PSoC5/UART_1.c **** *
  65:Generated_Source\PSoC5/UART_1.c **** * Global variables:
  66:Generated_Source\PSoC5/UART_1.c **** *  The UART_1_intiVar variable is used to indicate initial
  67:Generated_Source\PSoC5/UART_1.c **** *  configuration of this component. The variable is initialized to zero (0u)
  68:Generated_Source\PSoC5/UART_1.c **** *  and set to one (1u) the first time UART_1_Start() is called. This
  69:Generated_Source\PSoC5/UART_1.c **** *  allows for component initialization without re-initialization in all
  70:Generated_Source\PSoC5/UART_1.c **** *  subsequent calls to the UART_1_Start() routine.
  71:Generated_Source\PSoC5/UART_1.c **** *
  72:Generated_Source\PSoC5/UART_1.c **** * Reentrant:
  73:Generated_Source\PSoC5/UART_1.c **** *  No.
  74:Generated_Source\PSoC5/UART_1.c **** *
  75:Generated_Source\PSoC5/UART_1.c **** *******************************************************************************/
  76:Generated_Source\PSoC5/UART_1.c **** void UART_1_Start(void) 
  77:Generated_Source\PSoC5/UART_1.c **** {
  78:Generated_Source\PSoC5/UART_1.c ****     /* If not initialized then initialize all required hardware and software */
  79:Generated_Source\PSoC5/UART_1.c ****     if(UART_1_initVar == 0u)
  80:Generated_Source\PSoC5/UART_1.c ****     {
  81:Generated_Source\PSoC5/UART_1.c ****         UART_1_Init();
  82:Generated_Source\PSoC5/UART_1.c ****         UART_1_initVar = 1u;
  83:Generated_Source\PSoC5/UART_1.c ****     }
  84:Generated_Source\PSoC5/UART_1.c **** 
  85:Generated_Source\PSoC5/UART_1.c ****     UART_1_Enable();
  86:Generated_Source\PSoC5/UART_1.c **** }
  87:Generated_Source\PSoC5/UART_1.c **** 
ARM GAS  C:\Users\DELL\AppData\Local\Temp\cc7AnBD9.s 			page 3


  88:Generated_Source\PSoC5/UART_1.c **** 
  89:Generated_Source\PSoC5/UART_1.c **** /*******************************************************************************
  90:Generated_Source\PSoC5/UART_1.c **** * Function Name: UART_1_Init
  91:Generated_Source\PSoC5/UART_1.c **** ********************************************************************************
  92:Generated_Source\PSoC5/UART_1.c **** *
  93:Generated_Source\PSoC5/UART_1.c **** * Summary:
  94:Generated_Source\PSoC5/UART_1.c **** *  Initializes or restores the component according to the customizer Configure
  95:Generated_Source\PSoC5/UART_1.c **** *  dialog settings. It is not necessary to call UART_1_Init() because
  96:Generated_Source\PSoC5/UART_1.c **** *  the UART_1_Start() API calls this function and is the preferred
  97:Generated_Source\PSoC5/UART_1.c **** *  method to begin component operation.
  98:Generated_Source\PSoC5/UART_1.c **** *
  99:Generated_Source\PSoC5/UART_1.c **** * Parameters:
 100:Generated_Source\PSoC5/UART_1.c **** *  None.
 101:Generated_Source\PSoC5/UART_1.c **** *
 102:Generated_Source\PSoC5/UART_1.c **** * Return:
 103:Generated_Source\PSoC5/UART_1.c **** *  None.
 104:Generated_Source\PSoC5/UART_1.c **** *
 105:Generated_Source\PSoC5/UART_1.c **** *******************************************************************************/
 106:Generated_Source\PSoC5/UART_1.c **** void UART_1_Init(void) 
 107:Generated_Source\PSoC5/UART_1.c **** {
 108:Generated_Source\PSoC5/UART_1.c ****     #if(UART_1_RX_ENABLED || UART_1_HD_ENABLED)
 109:Generated_Source\PSoC5/UART_1.c **** 
 110:Generated_Source\PSoC5/UART_1.c ****         #if (UART_1_RX_INTERRUPT_ENABLED)
 111:Generated_Source\PSoC5/UART_1.c ****             /* Set RX interrupt vector and priority */
 112:Generated_Source\PSoC5/UART_1.c ****             (void) CyIntSetVector(UART_1_RX_VECT_NUM, &UART_1_RXISR);
 113:Generated_Source\PSoC5/UART_1.c ****             CyIntSetPriority(UART_1_RX_VECT_NUM, UART_1_RX_PRIOR_NUM);
 114:Generated_Source\PSoC5/UART_1.c ****             UART_1_errorStatus = 0u;
 115:Generated_Source\PSoC5/UART_1.c ****         #endif /* (UART_1_RX_INTERRUPT_ENABLED) */
 116:Generated_Source\PSoC5/UART_1.c **** 
 117:Generated_Source\PSoC5/UART_1.c ****         #if (UART_1_RXHW_ADDRESS_ENABLED)
 118:Generated_Source\PSoC5/UART_1.c ****             UART_1_SetRxAddressMode(UART_1_RX_ADDRESS_MODE);
 119:Generated_Source\PSoC5/UART_1.c ****             UART_1_SetRxAddress1(UART_1_RX_HW_ADDRESS1);
 120:Generated_Source\PSoC5/UART_1.c ****             UART_1_SetRxAddress2(UART_1_RX_HW_ADDRESS2);
 121:Generated_Source\PSoC5/UART_1.c ****         #endif /* End UART_1_RXHW_ADDRESS_ENABLED */
 122:Generated_Source\PSoC5/UART_1.c **** 
 123:Generated_Source\PSoC5/UART_1.c ****         /* Init Count7 period */
 124:Generated_Source\PSoC5/UART_1.c ****         UART_1_RXBITCTR_PERIOD_REG = UART_1_RXBITCTR_INIT;
 125:Generated_Source\PSoC5/UART_1.c ****         /* Configure the Initial RX interrupt mask */
 126:Generated_Source\PSoC5/UART_1.c ****         UART_1_RXSTATUS_MASK_REG  = UART_1_INIT_RX_INTERRUPTS_MASK;
 127:Generated_Source\PSoC5/UART_1.c ****     #endif /* End UART_1_RX_ENABLED || UART_1_HD_ENABLED*/
 128:Generated_Source\PSoC5/UART_1.c **** 
 129:Generated_Source\PSoC5/UART_1.c ****     #if(UART_1_TX_ENABLED)
 130:Generated_Source\PSoC5/UART_1.c ****         #if (UART_1_TX_INTERRUPT_ENABLED)
 131:Generated_Source\PSoC5/UART_1.c ****             /* Set TX interrupt vector and priority */
 132:Generated_Source\PSoC5/UART_1.c ****             (void) CyIntSetVector(UART_1_TX_VECT_NUM, &UART_1_TXISR);
 133:Generated_Source\PSoC5/UART_1.c ****             CyIntSetPriority(UART_1_TX_VECT_NUM, UART_1_TX_PRIOR_NUM);
 134:Generated_Source\PSoC5/UART_1.c ****         #endif /* (UART_1_TX_INTERRUPT_ENABLED) */
 135:Generated_Source\PSoC5/UART_1.c **** 
 136:Generated_Source\PSoC5/UART_1.c ****         /* Write Counter Value for TX Bit Clk Generator*/
 137:Generated_Source\PSoC5/UART_1.c ****         #if (UART_1_TXCLKGEN_DP)
 138:Generated_Source\PSoC5/UART_1.c ****             UART_1_TXBITCLKGEN_CTR_REG = UART_1_BIT_CENTER;
 139:Generated_Source\PSoC5/UART_1.c ****             UART_1_TXBITCLKTX_COMPLETE_REG = ((UART_1_NUMBER_OF_DATA_BITS +
 140:Generated_Source\PSoC5/UART_1.c ****                         UART_1_NUMBER_OF_START_BIT) * UART_1_OVER_SAMPLE_COUNT) - 1u;
 141:Generated_Source\PSoC5/UART_1.c ****         #else
 142:Generated_Source\PSoC5/UART_1.c ****             UART_1_TXBITCTR_PERIOD_REG = ((UART_1_NUMBER_OF_DATA_BITS +
 143:Generated_Source\PSoC5/UART_1.c ****                         UART_1_NUMBER_OF_START_BIT) * UART_1_OVER_SAMPLE_8) - 1u;
 144:Generated_Source\PSoC5/UART_1.c ****         #endif /* End UART_1_TXCLKGEN_DP */
ARM GAS  C:\Users\DELL\AppData\Local\Temp\cc7AnBD9.s 			page 4


 145:Generated_Source\PSoC5/UART_1.c **** 
 146:Generated_Source\PSoC5/UART_1.c ****         /* Configure the Initial TX interrupt mask */
 147:Generated_Source\PSoC5/UART_1.c ****         #if (UART_1_TX_INTERRUPT_ENABLED)
 148:Generated_Source\PSoC5/UART_1.c ****             UART_1_TXSTATUS_MASK_REG = UART_1_TX_STS_FIFO_EMPTY;
 149:Generated_Source\PSoC5/UART_1.c ****         #else
 150:Generated_Source\PSoC5/UART_1.c ****             UART_1_TXSTATUS_MASK_REG = UART_1_INIT_TX_INTERRUPTS_MASK;
 151:Generated_Source\PSoC5/UART_1.c ****         #endif /*End UART_1_TX_INTERRUPT_ENABLED*/
 152:Generated_Source\PSoC5/UART_1.c **** 
 153:Generated_Source\PSoC5/UART_1.c ****     #endif /* End UART_1_TX_ENABLED */
 154:Generated_Source\PSoC5/UART_1.c **** 
 155:Generated_Source\PSoC5/UART_1.c ****     #if(UART_1_PARITY_TYPE_SW)  /* Write Parity to Control Register */
 156:Generated_Source\PSoC5/UART_1.c ****         UART_1_WriteControlRegister( \
 157:Generated_Source\PSoC5/UART_1.c ****             (UART_1_ReadControlRegister() & (uint8)~UART_1_CTRL_PARITY_TYPE_MASK) | \
 158:Generated_Source\PSoC5/UART_1.c ****             (uint8)(UART_1_PARITY_TYPE << UART_1_CTRL_PARITY_TYPE0_SHIFT) );
 159:Generated_Source\PSoC5/UART_1.c ****     #endif /* End UART_1_PARITY_TYPE_SW */
 160:Generated_Source\PSoC5/UART_1.c **** }
 161:Generated_Source\PSoC5/UART_1.c **** 
 162:Generated_Source\PSoC5/UART_1.c **** 
 163:Generated_Source\PSoC5/UART_1.c **** /*******************************************************************************
 164:Generated_Source\PSoC5/UART_1.c **** * Function Name: UART_1_Enable
 165:Generated_Source\PSoC5/UART_1.c **** ********************************************************************************
 166:Generated_Source\PSoC5/UART_1.c **** *
 167:Generated_Source\PSoC5/UART_1.c **** * Summary:
 168:Generated_Source\PSoC5/UART_1.c **** *  Activates the hardware and begins component operation. It is not necessary
 169:Generated_Source\PSoC5/UART_1.c **** *  to call UART_1_Enable() because the UART_1_Start() API
 170:Generated_Source\PSoC5/UART_1.c **** *  calls this function, which is the preferred method to begin component
 171:Generated_Source\PSoC5/UART_1.c **** *  operation.
 172:Generated_Source\PSoC5/UART_1.c **** 
 173:Generated_Source\PSoC5/UART_1.c **** * Parameters:
 174:Generated_Source\PSoC5/UART_1.c **** *  None.
 175:Generated_Source\PSoC5/UART_1.c **** *
 176:Generated_Source\PSoC5/UART_1.c **** * Return:
 177:Generated_Source\PSoC5/UART_1.c **** *  None.
 178:Generated_Source\PSoC5/UART_1.c **** *
 179:Generated_Source\PSoC5/UART_1.c **** * Global Variables:
 180:Generated_Source\PSoC5/UART_1.c **** *  UART_1_rxAddressDetected - set to initial state (0).
 181:Generated_Source\PSoC5/UART_1.c **** *
 182:Generated_Source\PSoC5/UART_1.c **** *******************************************************************************/
 183:Generated_Source\PSoC5/UART_1.c **** void UART_1_Enable(void) 
 184:Generated_Source\PSoC5/UART_1.c **** {
  28              		.loc 1 184 0
  29              		.cfi_startproc
  30              		@ args = 0, pretend = 0, frame = 0
  31              		@ frame_needed = 0, uses_anonymous_args = 0
  32 0000 10B5     		push	{r4, lr}
  33              		.cfi_def_cfa_offset 8
  34              		.cfi_offset 4, -8
  35              		.cfi_offset 14, -4
 185:Generated_Source\PSoC5/UART_1.c ****     uint8 enableInterrupts;
 186:Generated_Source\PSoC5/UART_1.c ****     enableInterrupts = CyEnterCriticalSection();
  36              		.loc 1 186 0
  37 0002 FFF7FEFF 		bl	CyEnterCriticalSection
  38              	.LVL0:
  39 0006 0446     		mov	r4, r0
  40              	.LVL1:
 187:Generated_Source\PSoC5/UART_1.c **** 
 188:Generated_Source\PSoC5/UART_1.c ****     #if (UART_1_RX_ENABLED || UART_1_HD_ENABLED)
ARM GAS  C:\Users\DELL\AppData\Local\Temp\cc7AnBD9.s 			page 5


 189:Generated_Source\PSoC5/UART_1.c ****         /* RX Counter (Count7) Enable */
 190:Generated_Source\PSoC5/UART_1.c ****         UART_1_RXBITCTR_CONTROL_REG |= UART_1_CNTR_ENABLE;
  41              		.loc 1 190 0
  42 0008 0F4A     		ldr	r2, .L3
  43 000a 1378     		ldrb	r3, [r2]	@ zero_extendqisi2
  44 000c 43F02003 		orr	r3, r3, #32
  45 0010 1370     		strb	r3, [r2]
 191:Generated_Source\PSoC5/UART_1.c **** 
 192:Generated_Source\PSoC5/UART_1.c ****         /* Enable the RX Interrupt */
 193:Generated_Source\PSoC5/UART_1.c ****         UART_1_RXSTATUS_ACTL_REG  |= UART_1_INT_ENABLE;
  46              		.loc 1 193 0
  47 0012 0432     		adds	r2, r2, #4
  48 0014 1378     		ldrb	r3, [r2]	@ zero_extendqisi2
  49 0016 43F01003 		orr	r3, r3, #16
  50 001a 1370     		strb	r3, [r2]
 194:Generated_Source\PSoC5/UART_1.c **** 
 195:Generated_Source\PSoC5/UART_1.c ****         #if (UART_1_RX_INTERRUPT_ENABLED)
 196:Generated_Source\PSoC5/UART_1.c ****             UART_1_EnableRxInt();
  51              		.loc 1 196 0
  52 001c 0B4A     		ldr	r2, .L3+4
  53 001e 0123     		movs	r3, #1
  54 0020 1360     		str	r3, [r2]
 197:Generated_Source\PSoC5/UART_1.c **** 
 198:Generated_Source\PSoC5/UART_1.c ****             #if (UART_1_RXHW_ADDRESS_ENABLED)
 199:Generated_Source\PSoC5/UART_1.c ****                 UART_1_rxAddressDetected = 0u;
  55              		.loc 1 199 0
  56 0022 0021     		movs	r1, #0
  57 0024 0A4B     		ldr	r3, .L3+8
  58 0026 1970     		strb	r1, [r3]
 200:Generated_Source\PSoC5/UART_1.c ****             #endif /* (UART_1_RXHW_ADDRESS_ENABLED) */
 201:Generated_Source\PSoC5/UART_1.c ****         #endif /* (UART_1_RX_INTERRUPT_ENABLED) */
 202:Generated_Source\PSoC5/UART_1.c ****     #endif /* (UART_1_RX_ENABLED || UART_1_HD_ENABLED) */
 203:Generated_Source\PSoC5/UART_1.c **** 
 204:Generated_Source\PSoC5/UART_1.c ****     #if(UART_1_TX_ENABLED)
 205:Generated_Source\PSoC5/UART_1.c ****         /* TX Counter (DP/Count7) Enable */
 206:Generated_Source\PSoC5/UART_1.c ****         #if(!UART_1_TXCLKGEN_DP)
 207:Generated_Source\PSoC5/UART_1.c ****             UART_1_TXBITCTR_CONTROL_REG |= UART_1_CNTR_ENABLE;
 208:Generated_Source\PSoC5/UART_1.c ****         #endif /* End UART_1_TXCLKGEN_DP */
 209:Generated_Source\PSoC5/UART_1.c **** 
 210:Generated_Source\PSoC5/UART_1.c ****         /* Enable the TX Interrupt */
 211:Generated_Source\PSoC5/UART_1.c ****         UART_1_TXSTATUS_ACTL_REG |= UART_1_INT_ENABLE;
  59              		.loc 1 211 0
  60 0028 0A49     		ldr	r1, .L3+12
  61 002a 0B78     		ldrb	r3, [r1]	@ zero_extendqisi2
  62 002c 43F01003 		orr	r3, r3, #16
  63 0030 0B70     		strb	r3, [r1]
 212:Generated_Source\PSoC5/UART_1.c ****         #if (UART_1_TX_INTERRUPT_ENABLED)
 213:Generated_Source\PSoC5/UART_1.c ****             UART_1_ClearPendingTxInt(); /* Clear history of TX_NOT_EMPTY */
  64              		.loc 1 213 0
  65 0032 0223     		movs	r3, #2
  66 0034 0849     		ldr	r1, .L3+16
  67 0036 0B60     		str	r3, [r1]
 214:Generated_Source\PSoC5/UART_1.c ****             UART_1_EnableTxInt();
  68              		.loc 1 214 0
  69 0038 1360     		str	r3, [r2]
 215:Generated_Source\PSoC5/UART_1.c ****         #endif /* (UART_1_TX_INTERRUPT_ENABLED) */
 216:Generated_Source\PSoC5/UART_1.c ****      #endif /* (UART_1_TX_INTERRUPT_ENABLED) */
ARM GAS  C:\Users\DELL\AppData\Local\Temp\cc7AnBD9.s 			page 6


 217:Generated_Source\PSoC5/UART_1.c **** 
 218:Generated_Source\PSoC5/UART_1.c ****     #if (UART_1_INTERNAL_CLOCK_USED)
 219:Generated_Source\PSoC5/UART_1.c ****         UART_1_IntClock_Start();  /* Enable the clock */
  70              		.loc 1 219 0
  71 003a FFF7FEFF 		bl	UART_1_IntClock_Start
  72              	.LVL2:
 220:Generated_Source\PSoC5/UART_1.c ****     #endif /* (UART_1_INTERNAL_CLOCK_USED) */
 221:Generated_Source\PSoC5/UART_1.c **** 
 222:Generated_Source\PSoC5/UART_1.c ****     CyExitCriticalSection(enableInterrupts);
  73              		.loc 1 222 0
  74 003e 2046     		mov	r0, r4
  75 0040 FFF7FEFF 		bl	CyExitCriticalSection
  76              	.LVL3:
  77 0044 10BD     		pop	{r4, pc}
  78              	.LVL4:
  79              	.L4:
  80 0046 00BF     		.align	2
  81              	.L3:
  82 0048 98640040 		.word	1073767576
  83 004c 00E100E0 		.word	-536813312
  84 0050 00000000 		.word	.LANCHOR0
  85 0054 9A650040 		.word	1073767834
  86 0058 80E200E0 		.word	-536812928
  87              		.cfi_endproc
  88              	.LFE2:
  89              		.size	UART_1_Enable, .-UART_1_Enable
  90              		.section	.text.UART_1_Stop,"ax",%progbits
  91              		.align	2
  92              		.global	UART_1_Stop
  93              		.thumb
  94              		.thumb_func
  95              		.type	UART_1_Stop, %function
  96              	UART_1_Stop:
  97              	.LFB3:
 223:Generated_Source\PSoC5/UART_1.c **** }
 224:Generated_Source\PSoC5/UART_1.c **** 
 225:Generated_Source\PSoC5/UART_1.c **** 
 226:Generated_Source\PSoC5/UART_1.c **** /*******************************************************************************
 227:Generated_Source\PSoC5/UART_1.c **** * Function Name: UART_1_Stop
 228:Generated_Source\PSoC5/UART_1.c **** ********************************************************************************
 229:Generated_Source\PSoC5/UART_1.c **** *
 230:Generated_Source\PSoC5/UART_1.c **** * Summary:
 231:Generated_Source\PSoC5/UART_1.c **** *  Disables the UART operation.
 232:Generated_Source\PSoC5/UART_1.c **** *
 233:Generated_Source\PSoC5/UART_1.c **** * Parameters:
 234:Generated_Source\PSoC5/UART_1.c **** *  None.
 235:Generated_Source\PSoC5/UART_1.c **** *
 236:Generated_Source\PSoC5/UART_1.c **** * Return:
 237:Generated_Source\PSoC5/UART_1.c **** *  None.
 238:Generated_Source\PSoC5/UART_1.c **** *
 239:Generated_Source\PSoC5/UART_1.c **** *******************************************************************************/
 240:Generated_Source\PSoC5/UART_1.c **** void UART_1_Stop(void) 
 241:Generated_Source\PSoC5/UART_1.c **** {
  98              		.loc 1 241 0
  99              		.cfi_startproc
 100              		@ args = 0, pretend = 0, frame = 0
 101              		@ frame_needed = 0, uses_anonymous_args = 0
ARM GAS  C:\Users\DELL\AppData\Local\Temp\cc7AnBD9.s 			page 7


 102 0000 10B5     		push	{r4, lr}
 103              		.cfi_def_cfa_offset 8
 104              		.cfi_offset 4, -8
 105              		.cfi_offset 14, -4
 242:Generated_Source\PSoC5/UART_1.c ****     uint8 enableInterrupts;
 243:Generated_Source\PSoC5/UART_1.c ****     enableInterrupts = CyEnterCriticalSection();
 106              		.loc 1 243 0
 107 0002 FFF7FEFF 		bl	CyEnterCriticalSection
 108              	.LVL5:
 109 0006 0446     		mov	r4, r0
 110              	.LVL6:
 244:Generated_Source\PSoC5/UART_1.c **** 
 245:Generated_Source\PSoC5/UART_1.c ****     /* Write Bit Counter Disable */
 246:Generated_Source\PSoC5/UART_1.c ****     #if (UART_1_RX_ENABLED || UART_1_HD_ENABLED)
 247:Generated_Source\PSoC5/UART_1.c ****         UART_1_RXBITCTR_CONTROL_REG &= (uint8) ~UART_1_CNTR_ENABLE;
 111              		.loc 1 247 0
 112 0008 0C4A     		ldr	r2, .L7
 113 000a 1378     		ldrb	r3, [r2]	@ zero_extendqisi2
 114 000c 03F0DF03 		and	r3, r3, #223
 115 0010 1370     		strb	r3, [r2]
 248:Generated_Source\PSoC5/UART_1.c ****     #endif /* (UART_1_RX_ENABLED || UART_1_HD_ENABLED) */
 249:Generated_Source\PSoC5/UART_1.c **** 
 250:Generated_Source\PSoC5/UART_1.c ****     #if (UART_1_TX_ENABLED)
 251:Generated_Source\PSoC5/UART_1.c ****         #if(!UART_1_TXCLKGEN_DP)
 252:Generated_Source\PSoC5/UART_1.c ****             UART_1_TXBITCTR_CONTROL_REG &= (uint8) ~UART_1_CNTR_ENABLE;
 253:Generated_Source\PSoC5/UART_1.c ****         #endif /* (!UART_1_TXCLKGEN_DP) */
 254:Generated_Source\PSoC5/UART_1.c ****     #endif /* (UART_1_TX_ENABLED) */
 255:Generated_Source\PSoC5/UART_1.c **** 
 256:Generated_Source\PSoC5/UART_1.c ****     #if (UART_1_INTERNAL_CLOCK_USED)
 257:Generated_Source\PSoC5/UART_1.c ****         UART_1_IntClock_Stop();   /* Disable the clock */
 116              		.loc 1 257 0
 117 0012 FFF7FEFF 		bl	UART_1_IntClock_Stop
 118              	.LVL7:
 258:Generated_Source\PSoC5/UART_1.c ****     #endif /* (UART_1_INTERNAL_CLOCK_USED) */
 259:Generated_Source\PSoC5/UART_1.c **** 
 260:Generated_Source\PSoC5/UART_1.c ****     /* Disable internal interrupt component */
 261:Generated_Source\PSoC5/UART_1.c ****     #if (UART_1_RX_ENABLED || UART_1_HD_ENABLED)
 262:Generated_Source\PSoC5/UART_1.c ****         UART_1_RXSTATUS_ACTL_REG  &= (uint8) ~UART_1_INT_ENABLE;
 119              		.loc 1 262 0
 120 0016 0A4A     		ldr	r2, .L7+4
 121 0018 1378     		ldrb	r3, [r2]	@ zero_extendqisi2
 122 001a 03F0EF03 		and	r3, r3, #239
 123 001e 1370     		strb	r3, [r2]
 263:Generated_Source\PSoC5/UART_1.c **** 
 264:Generated_Source\PSoC5/UART_1.c ****         #if (UART_1_RX_INTERRUPT_ENABLED)
 265:Generated_Source\PSoC5/UART_1.c ****             UART_1_DisableRxInt();
 124              		.loc 1 265 0
 125 0020 084A     		ldr	r2, .L7+8
 126 0022 0123     		movs	r3, #1
 127 0024 1360     		str	r3, [r2]
 266:Generated_Source\PSoC5/UART_1.c ****         #endif /* (UART_1_RX_INTERRUPT_ENABLED) */
 267:Generated_Source\PSoC5/UART_1.c ****     #endif /* (UART_1_RX_ENABLED || UART_1_HD_ENABLED) */
 268:Generated_Source\PSoC5/UART_1.c **** 
 269:Generated_Source\PSoC5/UART_1.c ****     #if (UART_1_TX_ENABLED)
 270:Generated_Source\PSoC5/UART_1.c ****         UART_1_TXSTATUS_ACTL_REG &= (uint8) ~UART_1_INT_ENABLE;
 128              		.loc 1 270 0
 129 0026 0849     		ldr	r1, .L7+12
ARM GAS  C:\Users\DELL\AppData\Local\Temp\cc7AnBD9.s 			page 8


 130 0028 0B78     		ldrb	r3, [r1]	@ zero_extendqisi2
 131 002a 03F0EF03 		and	r3, r3, #239
 132 002e 0B70     		strb	r3, [r1]
 271:Generated_Source\PSoC5/UART_1.c **** 
 272:Generated_Source\PSoC5/UART_1.c ****         #if (UART_1_TX_INTERRUPT_ENABLED)
 273:Generated_Source\PSoC5/UART_1.c ****             UART_1_DisableTxInt();
 133              		.loc 1 273 0
 134 0030 0223     		movs	r3, #2
 135 0032 1360     		str	r3, [r2]
 274:Generated_Source\PSoC5/UART_1.c ****         #endif /* (UART_1_TX_INTERRUPT_ENABLED) */
 275:Generated_Source\PSoC5/UART_1.c ****     #endif /* (UART_1_TX_ENABLED) */
 276:Generated_Source\PSoC5/UART_1.c **** 
 277:Generated_Source\PSoC5/UART_1.c ****     CyExitCriticalSection(enableInterrupts);
 136              		.loc 1 277 0
 137 0034 2046     		mov	r0, r4
 138 0036 FFF7FEFF 		bl	CyExitCriticalSection
 139              	.LVL8:
 140 003a 10BD     		pop	{r4, pc}
 141              	.LVL9:
 142              	.L8:
 143              		.align	2
 144              	.L7:
 145 003c 98640040 		.word	1073767576
 146 0040 9C640040 		.word	1073767580
 147 0044 80E100E0 		.word	-536813184
 148 0048 9A650040 		.word	1073767834
 149              		.cfi_endproc
 150              	.LFE3:
 151              		.size	UART_1_Stop, .-UART_1_Stop
 152              		.section	.text.UART_1_ReadControlRegister,"ax",%progbits
 153              		.align	2
 154              		.global	UART_1_ReadControlRegister
 155              		.thumb
 156              		.thumb_func
 157              		.type	UART_1_ReadControlRegister, %function
 158              	UART_1_ReadControlRegister:
 159              	.LFB4:
 278:Generated_Source\PSoC5/UART_1.c **** }
 279:Generated_Source\PSoC5/UART_1.c **** 
 280:Generated_Source\PSoC5/UART_1.c **** 
 281:Generated_Source\PSoC5/UART_1.c **** /*******************************************************************************
 282:Generated_Source\PSoC5/UART_1.c **** * Function Name: UART_1_ReadControlRegister
 283:Generated_Source\PSoC5/UART_1.c **** ********************************************************************************
 284:Generated_Source\PSoC5/UART_1.c **** *
 285:Generated_Source\PSoC5/UART_1.c **** * Summary:
 286:Generated_Source\PSoC5/UART_1.c **** *  Returns the current value of the control register.
 287:Generated_Source\PSoC5/UART_1.c **** *
 288:Generated_Source\PSoC5/UART_1.c **** * Parameters:
 289:Generated_Source\PSoC5/UART_1.c **** *  None.
 290:Generated_Source\PSoC5/UART_1.c **** *
 291:Generated_Source\PSoC5/UART_1.c **** * Return:
 292:Generated_Source\PSoC5/UART_1.c **** *  Contents of the control register.
 293:Generated_Source\PSoC5/UART_1.c **** *
 294:Generated_Source\PSoC5/UART_1.c **** *******************************************************************************/
 295:Generated_Source\PSoC5/UART_1.c **** uint8 UART_1_ReadControlRegister(void) 
 296:Generated_Source\PSoC5/UART_1.c **** {
 160              		.loc 1 296 0
ARM GAS  C:\Users\DELL\AppData\Local\Temp\cc7AnBD9.s 			page 9


 161              		.cfi_startproc
 162              		@ args = 0, pretend = 0, frame = 0
 163              		@ frame_needed = 0, uses_anonymous_args = 0
 164              		@ link register save eliminated.
 297:Generated_Source\PSoC5/UART_1.c ****     #if (UART_1_CONTROL_REG_REMOVED)
 298:Generated_Source\PSoC5/UART_1.c ****         return(0u);
 299:Generated_Source\PSoC5/UART_1.c ****     #else
 300:Generated_Source\PSoC5/UART_1.c ****         return(UART_1_CONTROL_REG);
 165              		.loc 1 300 0
 166 0000 014B     		ldr	r3, .L10
 167 0002 1878     		ldrb	r0, [r3]	@ zero_extendqisi2
 301:Generated_Source\PSoC5/UART_1.c ****     #endif /* (UART_1_CONTROL_REG_REMOVED) */
 302:Generated_Source\PSoC5/UART_1.c **** }
 168              		.loc 1 302 0
 169 0004 7047     		bx	lr
 170              	.L11:
 171 0006 00BF     		.align	2
 172              	.L10:
 173 0008 7B640040 		.word	1073767547
 174              		.cfi_endproc
 175              	.LFE4:
 176              		.size	UART_1_ReadControlRegister, .-UART_1_ReadControlRegister
 177              		.section	.text.UART_1_WriteControlRegister,"ax",%progbits
 178              		.align	2
 179              		.global	UART_1_WriteControlRegister
 180              		.thumb
 181              		.thumb_func
 182              		.type	UART_1_WriteControlRegister, %function
 183              	UART_1_WriteControlRegister:
 184              	.LFB5:
 303:Generated_Source\PSoC5/UART_1.c **** 
 304:Generated_Source\PSoC5/UART_1.c **** 
 305:Generated_Source\PSoC5/UART_1.c **** /*******************************************************************************
 306:Generated_Source\PSoC5/UART_1.c **** * Function Name: UART_1_WriteControlRegister
 307:Generated_Source\PSoC5/UART_1.c **** ********************************************************************************
 308:Generated_Source\PSoC5/UART_1.c **** *
 309:Generated_Source\PSoC5/UART_1.c **** * Summary:
 310:Generated_Source\PSoC5/UART_1.c **** *  Writes an 8-bit value into the control register
 311:Generated_Source\PSoC5/UART_1.c **** *
 312:Generated_Source\PSoC5/UART_1.c **** * Parameters:
 313:Generated_Source\PSoC5/UART_1.c **** *  control:  control register value
 314:Generated_Source\PSoC5/UART_1.c **** *
 315:Generated_Source\PSoC5/UART_1.c **** * Return:
 316:Generated_Source\PSoC5/UART_1.c **** *  None.
 317:Generated_Source\PSoC5/UART_1.c **** *
 318:Generated_Source\PSoC5/UART_1.c **** *******************************************************************************/
 319:Generated_Source\PSoC5/UART_1.c **** void  UART_1_WriteControlRegister(uint8 control) 
 320:Generated_Source\PSoC5/UART_1.c **** {
 185              		.loc 1 320 0
 186              		.cfi_startproc
 187              		@ args = 0, pretend = 0, frame = 0
 188              		@ frame_needed = 0, uses_anonymous_args = 0
 189              		@ link register save eliminated.
 190              	.LVL10:
 321:Generated_Source\PSoC5/UART_1.c ****     #if (UART_1_CONTROL_REG_REMOVED)
 322:Generated_Source\PSoC5/UART_1.c ****         if(0u != control)
 323:Generated_Source\PSoC5/UART_1.c ****         {
ARM GAS  C:\Users\DELL\AppData\Local\Temp\cc7AnBD9.s 			page 10


 324:Generated_Source\PSoC5/UART_1.c ****             /* Suppress compiler warning */
 325:Generated_Source\PSoC5/UART_1.c ****         }
 326:Generated_Source\PSoC5/UART_1.c ****     #else
 327:Generated_Source\PSoC5/UART_1.c ****        UART_1_CONTROL_REG = control;
 191              		.loc 1 327 0
 192 0000 014B     		ldr	r3, .L13
 193 0002 1870     		strb	r0, [r3]
 194 0004 7047     		bx	lr
 195              	.L14:
 196 0006 00BF     		.align	2
 197              	.L13:
 198 0008 7B640040 		.word	1073767547
 199              		.cfi_endproc
 200              	.LFE5:
 201              		.size	UART_1_WriteControlRegister, .-UART_1_WriteControlRegister
 202              		.section	.text.UART_1_SetRxInterruptMode,"ax",%progbits
 203              		.align	2
 204              		.global	UART_1_SetRxInterruptMode
 205              		.thumb
 206              		.thumb_func
 207              		.type	UART_1_SetRxInterruptMode, %function
 208              	UART_1_SetRxInterruptMode:
 209              	.LFB6:
 328:Generated_Source\PSoC5/UART_1.c ****     #endif /* (UART_1_CONTROL_REG_REMOVED) */
 329:Generated_Source\PSoC5/UART_1.c **** }
 330:Generated_Source\PSoC5/UART_1.c **** 
 331:Generated_Source\PSoC5/UART_1.c **** 
 332:Generated_Source\PSoC5/UART_1.c **** #if(UART_1_RX_ENABLED || UART_1_HD_ENABLED)
 333:Generated_Source\PSoC5/UART_1.c ****     /*******************************************************************************
 334:Generated_Source\PSoC5/UART_1.c ****     * Function Name: UART_1_SetRxInterruptMode
 335:Generated_Source\PSoC5/UART_1.c ****     ********************************************************************************
 336:Generated_Source\PSoC5/UART_1.c ****     *
 337:Generated_Source\PSoC5/UART_1.c ****     * Summary:
 338:Generated_Source\PSoC5/UART_1.c ****     *  Configures the RX interrupt sources enabled.
 339:Generated_Source\PSoC5/UART_1.c ****     *
 340:Generated_Source\PSoC5/UART_1.c ****     * Parameters:
 341:Generated_Source\PSoC5/UART_1.c ****     *  IntSrc:  Bit field containing the RX interrupts to enable. Based on the 
 342:Generated_Source\PSoC5/UART_1.c ****     *  bit-field arrangement of the status register. This value must be a 
 343:Generated_Source\PSoC5/UART_1.c ****     *  combination of status register bit-masks shown below:
 344:Generated_Source\PSoC5/UART_1.c ****     *      UART_1_RX_STS_FIFO_NOTEMPTY    Interrupt on byte received.
 345:Generated_Source\PSoC5/UART_1.c ****     *      UART_1_RX_STS_PAR_ERROR        Interrupt on parity error.
 346:Generated_Source\PSoC5/UART_1.c ****     *      UART_1_RX_STS_STOP_ERROR       Interrupt on stop error.
 347:Generated_Source\PSoC5/UART_1.c ****     *      UART_1_RX_STS_BREAK            Interrupt on break.
 348:Generated_Source\PSoC5/UART_1.c ****     *      UART_1_RX_STS_OVERRUN          Interrupt on overrun error.
 349:Generated_Source\PSoC5/UART_1.c ****     *      UART_1_RX_STS_ADDR_MATCH       Interrupt on address match.
 350:Generated_Source\PSoC5/UART_1.c ****     *      UART_1_RX_STS_MRKSPC           Interrupt on address detect.
 351:Generated_Source\PSoC5/UART_1.c ****     *
 352:Generated_Source\PSoC5/UART_1.c ****     * Return:
 353:Generated_Source\PSoC5/UART_1.c ****     *  None.
 354:Generated_Source\PSoC5/UART_1.c ****     *
 355:Generated_Source\PSoC5/UART_1.c ****     * Theory:
 356:Generated_Source\PSoC5/UART_1.c ****     *  Enables the output of specific status bits to the interrupt controller
 357:Generated_Source\PSoC5/UART_1.c ****     *
 358:Generated_Source\PSoC5/UART_1.c ****     *******************************************************************************/
 359:Generated_Source\PSoC5/UART_1.c ****     void UART_1_SetRxInterruptMode(uint8 intSrc) 
 360:Generated_Source\PSoC5/UART_1.c ****     {
 210              		.loc 1 360 0
ARM GAS  C:\Users\DELL\AppData\Local\Temp\cc7AnBD9.s 			page 11


 211              		.cfi_startproc
 212              		@ args = 0, pretend = 0, frame = 0
 213              		@ frame_needed = 0, uses_anonymous_args = 0
 214              		@ link register save eliminated.
 215              	.LVL11:
 361:Generated_Source\PSoC5/UART_1.c ****         UART_1_RXSTATUS_MASK_REG  = intSrc;
 216              		.loc 1 361 0
 217 0000 014B     		ldr	r3, .L16
 218 0002 1870     		strb	r0, [r3]
 219 0004 7047     		bx	lr
 220              	.L17:
 221 0006 00BF     		.align	2
 222              	.L16:
 223 0008 8C640040 		.word	1073767564
 224              		.cfi_endproc
 225              	.LFE6:
 226              		.size	UART_1_SetRxInterruptMode, .-UART_1_SetRxInterruptMode
 227              		.section	.text.UART_1_ReadRxData,"ax",%progbits
 228              		.align	2
 229              		.global	UART_1_ReadRxData
 230              		.thumb
 231              		.thumb_func
 232              		.type	UART_1_ReadRxData, %function
 233              	UART_1_ReadRxData:
 234              	.LFB7:
 362:Generated_Source\PSoC5/UART_1.c ****     }
 363:Generated_Source\PSoC5/UART_1.c **** 
 364:Generated_Source\PSoC5/UART_1.c **** 
 365:Generated_Source\PSoC5/UART_1.c ****     /*******************************************************************************
 366:Generated_Source\PSoC5/UART_1.c ****     * Function Name: UART_1_ReadRxData
 367:Generated_Source\PSoC5/UART_1.c ****     ********************************************************************************
 368:Generated_Source\PSoC5/UART_1.c ****     *
 369:Generated_Source\PSoC5/UART_1.c ****     * Summary:
 370:Generated_Source\PSoC5/UART_1.c ****     *  Returns the next byte of received data. This function returns data without
 371:Generated_Source\PSoC5/UART_1.c ****     *  checking the status. You must check the status separately.
 372:Generated_Source\PSoC5/UART_1.c ****     *
 373:Generated_Source\PSoC5/UART_1.c ****     * Parameters:
 374:Generated_Source\PSoC5/UART_1.c ****     *  None.
 375:Generated_Source\PSoC5/UART_1.c ****     *
 376:Generated_Source\PSoC5/UART_1.c ****     * Return:
 377:Generated_Source\PSoC5/UART_1.c ****     *  Received data from RX register
 378:Generated_Source\PSoC5/UART_1.c ****     *
 379:Generated_Source\PSoC5/UART_1.c ****     * Global Variables:
 380:Generated_Source\PSoC5/UART_1.c ****     *  UART_1_rxBuffer - RAM buffer pointer for save received data.
 381:Generated_Source\PSoC5/UART_1.c ****     *  UART_1_rxBufferWrite - cyclic index for write to rxBuffer,
 382:Generated_Source\PSoC5/UART_1.c ****     *     checked to identify new data.
 383:Generated_Source\PSoC5/UART_1.c ****     *  UART_1_rxBufferRead - cyclic index for read from rxBuffer,
 384:Generated_Source\PSoC5/UART_1.c ****     *     incremented after each byte has been read from buffer.
 385:Generated_Source\PSoC5/UART_1.c ****     *  UART_1_rxBufferLoopDetect - cleared if loop condition was detected
 386:Generated_Source\PSoC5/UART_1.c ****     *     in RX ISR.
 387:Generated_Source\PSoC5/UART_1.c ****     *
 388:Generated_Source\PSoC5/UART_1.c ****     * Reentrant:
 389:Generated_Source\PSoC5/UART_1.c ****     *  No.
 390:Generated_Source\PSoC5/UART_1.c ****     *
 391:Generated_Source\PSoC5/UART_1.c ****     *******************************************************************************/
 392:Generated_Source\PSoC5/UART_1.c ****     uint8 UART_1_ReadRxData(void) 
 393:Generated_Source\PSoC5/UART_1.c ****     {
ARM GAS  C:\Users\DELL\AppData\Local\Temp\cc7AnBD9.s 			page 12


 235              		.loc 1 393 0
 236              		.cfi_startproc
 237              		@ args = 0, pretend = 0, frame = 0
 238              		@ frame_needed = 0, uses_anonymous_args = 0
 239              		@ link register save eliminated.
 394:Generated_Source\PSoC5/UART_1.c ****         uint8 rxData;
 395:Generated_Source\PSoC5/UART_1.c **** 
 396:Generated_Source\PSoC5/UART_1.c ****     #if (UART_1_RX_INTERRUPT_ENABLED)
 397:Generated_Source\PSoC5/UART_1.c **** 
 398:Generated_Source\PSoC5/UART_1.c ****         uint8 locRxBufferRead;
 399:Generated_Source\PSoC5/UART_1.c ****         uint8 locRxBufferWrite;
 400:Generated_Source\PSoC5/UART_1.c **** 
 401:Generated_Source\PSoC5/UART_1.c ****         /* Protect variables that could change on interrupt */
 402:Generated_Source\PSoC5/UART_1.c ****         UART_1_DisableRxInt();
 240              		.loc 1 402 0
 241 0000 0122     		movs	r2, #1
 242 0002 134B     		ldr	r3, .L24
 243 0004 1A60     		str	r2, [r3]
 403:Generated_Source\PSoC5/UART_1.c **** 
 404:Generated_Source\PSoC5/UART_1.c ****         locRxBufferRead  = UART_1_rxBufferRead;
 244              		.loc 1 404 0
 245 0006 134A     		ldr	r2, .L24+4
 246 0008 5378     		ldrb	r3, [r2, #1]	@ zero_extendqisi2
 247 000a DBB2     		uxtb	r3, r3
 248              	.LVL12:
 405:Generated_Source\PSoC5/UART_1.c ****         locRxBufferWrite = UART_1_rxBufferWrite;
 249              		.loc 1 405 0
 250 000c 9178     		ldrb	r1, [r2, #2]	@ zero_extendqisi2
 251 000e C9B2     		uxtb	r1, r1
 252              	.LVL13:
 406:Generated_Source\PSoC5/UART_1.c **** 
 407:Generated_Source\PSoC5/UART_1.c ****         if( (UART_1_rxBufferLoopDetect != 0u) || (locRxBufferRead != locRxBufferWrite) )
 253              		.loc 1 407 0
 254 0010 D278     		ldrb	r2, [r2, #3]	@ zero_extendqisi2
 255 0012 12F0FF0F 		tst	r2, #255
 256 0016 01D1     		bne	.L19
 257              		.loc 1 407 0 is_stmt 0 discriminator 1
 258 0018 8B42     		cmp	r3, r1
 259 001a 11D0     		beq	.L20
 260              	.L19:
 408:Generated_Source\PSoC5/UART_1.c ****         {
 409:Generated_Source\PSoC5/UART_1.c ****             rxData = UART_1_rxBuffer[locRxBufferRead];
 261              		.loc 1 409 0 is_stmt 1
 262 001c 0E4A     		ldr	r2, .L24+8
 263 001e D05C     		ldrb	r0, [r2, r3]	@ zero_extendqisi2
 264 0020 C0B2     		uxtb	r0, r0
 265              	.LVL14:
 410:Generated_Source\PSoC5/UART_1.c ****             locRxBufferRead++;
 266              		.loc 1 410 0
 267 0022 0133     		adds	r3, r3, #1
 268              	.LVL15:
 269 0024 DBB2     		uxtb	r3, r3
 270              	.LVL16:
 411:Generated_Source\PSoC5/UART_1.c **** 
 412:Generated_Source\PSoC5/UART_1.c ****             if(locRxBufferRead >= UART_1_RX_BUFFER_SIZE)
 271              		.loc 1 412 0
 272 0026 072B     		cmp	r3, #7
ARM GAS  C:\Users\DELL\AppData\Local\Temp\cc7AnBD9.s 			page 13


 273 0028 00D9     		bls	.L21
 413:Generated_Source\PSoC5/UART_1.c ****             {
 414:Generated_Source\PSoC5/UART_1.c ****                 locRxBufferRead = 0u;
 274              		.loc 1 414 0
 275 002a 0023     		movs	r3, #0
 276              	.LVL17:
 277              	.L21:
 415:Generated_Source\PSoC5/UART_1.c ****             }
 416:Generated_Source\PSoC5/UART_1.c ****             /* Update the real pointer */
 417:Generated_Source\PSoC5/UART_1.c ****             UART_1_rxBufferRead = locRxBufferRead;
 278              		.loc 1 417 0
 279 002c 094A     		ldr	r2, .L24+4
 280 002e 5370     		strb	r3, [r2, #1]
 418:Generated_Source\PSoC5/UART_1.c **** 
 419:Generated_Source\PSoC5/UART_1.c ****             if(UART_1_rxBufferLoopDetect != 0u)
 281              		.loc 1 419 0
 282 0030 D378     		ldrb	r3, [r2, #3]	@ zero_extendqisi2
 283              	.LVL18:
 284 0032 13F0FF0F 		tst	r3, #255
 285 0036 06D0     		beq	.L22
 420:Generated_Source\PSoC5/UART_1.c ****             {
 421:Generated_Source\PSoC5/UART_1.c ****                 UART_1_rxBufferLoopDetect = 0u;
 286              		.loc 1 421 0
 287 0038 0022     		movs	r2, #0
 288 003a 064B     		ldr	r3, .L24+4
 289 003c DA70     		strb	r2, [r3, #3]
 290              	.LVL19:
 291 003e 02E0     		b	.L22
 292              	.LVL20:
 293              	.L20:
 422:Generated_Source\PSoC5/UART_1.c ****                 #if ((UART_1_RX_INTERRUPT_ENABLED) && (UART_1_FLOW_CONTROL != 0u))
 423:Generated_Source\PSoC5/UART_1.c ****                     /* When Hardware Flow Control selected - return RX mask */
 424:Generated_Source\PSoC5/UART_1.c ****                     #if( UART_1_HD_ENABLED )
 425:Generated_Source\PSoC5/UART_1.c ****                         if((UART_1_CONTROL_REG & UART_1_CTRL_HD_SEND) == 0u)
 426:Generated_Source\PSoC5/UART_1.c ****                         {   /* In Half duplex mode return RX mask only in RX
 427:Generated_Source\PSoC5/UART_1.c ****                             *  configuration set, otherwise
 428:Generated_Source\PSoC5/UART_1.c ****                             *  mask will be returned in LoadRxConfig() API.
 429:Generated_Source\PSoC5/UART_1.c ****                             */
 430:Generated_Source\PSoC5/UART_1.c ****                             UART_1_RXSTATUS_MASK_REG  |= UART_1_RX_STS_FIFO_NOTEMPTY;
 431:Generated_Source\PSoC5/UART_1.c ****                         }
 432:Generated_Source\PSoC5/UART_1.c ****                     #else
 433:Generated_Source\PSoC5/UART_1.c ****                         UART_1_RXSTATUS_MASK_REG  |= UART_1_RX_STS_FIFO_NOTEMPTY;
 434:Generated_Source\PSoC5/UART_1.c ****                     #endif /* end UART_1_HD_ENABLED */
 435:Generated_Source\PSoC5/UART_1.c ****                 #endif /* ((UART_1_RX_INTERRUPT_ENABLED) && (UART_1_FLOW_CONTROL != 0u)) */
 436:Generated_Source\PSoC5/UART_1.c ****             }
 437:Generated_Source\PSoC5/UART_1.c ****         }
 438:Generated_Source\PSoC5/UART_1.c ****         else
 439:Generated_Source\PSoC5/UART_1.c ****         {   /* Needs to check status for RX_STS_FIFO_NOTEMPTY bit */
 440:Generated_Source\PSoC5/UART_1.c ****             rxData = UART_1_RXDATA_REG;
 294              		.loc 1 440 0
 295 0040 064B     		ldr	r3, .L24+12
 296              	.LVL21:
 297 0042 1878     		ldrb	r0, [r3]	@ zero_extendqisi2
 298 0044 C0B2     		uxtb	r0, r0
 299              	.LVL22:
 300              	.L22:
 441:Generated_Source\PSoC5/UART_1.c ****         }
ARM GAS  C:\Users\DELL\AppData\Local\Temp\cc7AnBD9.s 			page 14


 442:Generated_Source\PSoC5/UART_1.c **** 
 443:Generated_Source\PSoC5/UART_1.c ****         UART_1_EnableRxInt();
 301              		.loc 1 443 0
 302 0046 0122     		movs	r2, #1
 303 0048 054B     		ldr	r3, .L24+16
 304 004a 1A60     		str	r2, [r3]
 444:Generated_Source\PSoC5/UART_1.c **** 
 445:Generated_Source\PSoC5/UART_1.c ****     #else
 446:Generated_Source\PSoC5/UART_1.c **** 
 447:Generated_Source\PSoC5/UART_1.c ****         /* Needs to check status for RX_STS_FIFO_NOTEMPTY bit */
 448:Generated_Source\PSoC5/UART_1.c ****         rxData = UART_1_RXDATA_REG;
 449:Generated_Source\PSoC5/UART_1.c **** 
 450:Generated_Source\PSoC5/UART_1.c ****     #endif /* (UART_1_RX_INTERRUPT_ENABLED) */
 451:Generated_Source\PSoC5/UART_1.c **** 
 452:Generated_Source\PSoC5/UART_1.c ****         return(rxData);
 453:Generated_Source\PSoC5/UART_1.c ****     }
 305              		.loc 1 453 0
 306 004c 7047     		bx	lr
 307              	.L25:
 308 004e 00BF     		.align	2
 309              	.L24:
 310 0050 80E100E0 		.word	-536813184
 311 0054 00000000 		.word	.LANCHOR0
 312 0058 00000000 		.word	UART_1_rxBuffer
 313 005c 48640040 		.word	1073767496
 314 0060 00E100E0 		.word	-536813312
 315              		.cfi_endproc
 316              	.LFE7:
 317              		.size	UART_1_ReadRxData, .-UART_1_ReadRxData
 318              		.section	.text.UART_1_ReadRxStatus,"ax",%progbits
 319              		.align	2
 320              		.global	UART_1_ReadRxStatus
 321              		.thumb
 322              		.thumb_func
 323              		.type	UART_1_ReadRxStatus, %function
 324              	UART_1_ReadRxStatus:
 325              	.LFB8:
 454:Generated_Source\PSoC5/UART_1.c **** 
 455:Generated_Source\PSoC5/UART_1.c **** 
 456:Generated_Source\PSoC5/UART_1.c ****     /*******************************************************************************
 457:Generated_Source\PSoC5/UART_1.c ****     * Function Name: UART_1_ReadRxStatus
 458:Generated_Source\PSoC5/UART_1.c ****     ********************************************************************************
 459:Generated_Source\PSoC5/UART_1.c ****     *
 460:Generated_Source\PSoC5/UART_1.c ****     * Summary:
 461:Generated_Source\PSoC5/UART_1.c ****     *  Returns the current state of the receiver status register and the software
 462:Generated_Source\PSoC5/UART_1.c ****     *  buffer overflow status.
 463:Generated_Source\PSoC5/UART_1.c ****     *
 464:Generated_Source\PSoC5/UART_1.c ****     * Parameters:
 465:Generated_Source\PSoC5/UART_1.c ****     *  None.
 466:Generated_Source\PSoC5/UART_1.c ****     *
 467:Generated_Source\PSoC5/UART_1.c ****     * Return:
 468:Generated_Source\PSoC5/UART_1.c ****     *  Current state of the status register.
 469:Generated_Source\PSoC5/UART_1.c ****     *
 470:Generated_Source\PSoC5/UART_1.c ****     * Side Effect:
 471:Generated_Source\PSoC5/UART_1.c ****     *  All status register bits are clear-on-read except
 472:Generated_Source\PSoC5/UART_1.c ****     *  UART_1_RX_STS_FIFO_NOTEMPTY.
 473:Generated_Source\PSoC5/UART_1.c ****     *  UART_1_RX_STS_FIFO_NOTEMPTY clears immediately after RX data
ARM GAS  C:\Users\DELL\AppData\Local\Temp\cc7AnBD9.s 			page 15


 474:Generated_Source\PSoC5/UART_1.c ****     *  register read.
 475:Generated_Source\PSoC5/UART_1.c ****     *
 476:Generated_Source\PSoC5/UART_1.c ****     * Global Variables:
 477:Generated_Source\PSoC5/UART_1.c ****     *  UART_1_rxBufferOverflow - used to indicate overload condition.
 478:Generated_Source\PSoC5/UART_1.c ****     *   It set to one in RX interrupt when there isn't free space in
 479:Generated_Source\PSoC5/UART_1.c ****     *   UART_1_rxBufferRead to write new data. This condition returned
 480:Generated_Source\PSoC5/UART_1.c ****     *   and cleared to zero by this API as an
 481:Generated_Source\PSoC5/UART_1.c ****     *   UART_1_RX_STS_SOFT_BUFF_OVER bit along with RX Status register
 482:Generated_Source\PSoC5/UART_1.c ****     *   bits.
 483:Generated_Source\PSoC5/UART_1.c ****     *
 484:Generated_Source\PSoC5/UART_1.c ****     *******************************************************************************/
 485:Generated_Source\PSoC5/UART_1.c ****     uint8 UART_1_ReadRxStatus(void) 
 486:Generated_Source\PSoC5/UART_1.c ****     {
 326              		.loc 1 486 0
 327              		.cfi_startproc
 328              		@ args = 0, pretend = 0, frame = 0
 329              		@ frame_needed = 0, uses_anonymous_args = 0
 330              		@ link register save eliminated.
 487:Generated_Source\PSoC5/UART_1.c ****         uint8 status;
 488:Generated_Source\PSoC5/UART_1.c **** 
 489:Generated_Source\PSoC5/UART_1.c ****         status = UART_1_RXSTATUS_REG & UART_1_RX_HW_MASK;
 331              		.loc 1 489 0
 332 0000 074B     		ldr	r3, .L28
 333 0002 1878     		ldrb	r0, [r3]	@ zero_extendqisi2
 334 0004 00F07F00 		and	r0, r0, #127
 335              	.LVL23:
 490:Generated_Source\PSoC5/UART_1.c **** 
 491:Generated_Source\PSoC5/UART_1.c ****     #if (UART_1_RX_INTERRUPT_ENABLED)
 492:Generated_Source\PSoC5/UART_1.c ****         if(UART_1_rxBufferOverflow != 0u)
 336              		.loc 1 492 0
 337 0008 064B     		ldr	r3, .L28+4
 338 000a 1B79     		ldrb	r3, [r3, #4]	@ zero_extendqisi2
 339 000c 13F0FF0F 		tst	r3, #255
 340 0010 04D0     		beq	.L27
 493:Generated_Source\PSoC5/UART_1.c ****         {
 494:Generated_Source\PSoC5/UART_1.c ****             status |= UART_1_RX_STS_SOFT_BUFF_OVER;
 341              		.loc 1 494 0
 342 0012 40F08000 		orr	r0, r0, #128
 343              	.LVL24:
 495:Generated_Source\PSoC5/UART_1.c ****             UART_1_rxBufferOverflow = 0u;
 344              		.loc 1 495 0
 345 0016 0022     		movs	r2, #0
 346 0018 024B     		ldr	r3, .L28+4
 347 001a 1A71     		strb	r2, [r3, #4]
 348              	.L27:
 496:Generated_Source\PSoC5/UART_1.c ****         }
 497:Generated_Source\PSoC5/UART_1.c ****     #endif /* (UART_1_RX_INTERRUPT_ENABLED) */
 498:Generated_Source\PSoC5/UART_1.c **** 
 499:Generated_Source\PSoC5/UART_1.c ****         return(status);
 500:Generated_Source\PSoC5/UART_1.c ****     }
 349              		.loc 1 500 0
 350 001c 7047     		bx	lr
 351              	.L29:
 352 001e 00BF     		.align	2
 353              	.L28:
 354 0020 6C640040 		.word	1073767532
 355 0024 00000000 		.word	.LANCHOR0
ARM GAS  C:\Users\DELL\AppData\Local\Temp\cc7AnBD9.s 			page 16


 356              		.cfi_endproc
 357              	.LFE8:
 358              		.size	UART_1_ReadRxStatus, .-UART_1_ReadRxStatus
 359              		.section	.text.UART_1_GetChar,"ax",%progbits
 360              		.align	2
 361              		.global	UART_1_GetChar
 362              		.thumb
 363              		.thumb_func
 364              		.type	UART_1_GetChar, %function
 365              	UART_1_GetChar:
 366              	.LFB9:
 501:Generated_Source\PSoC5/UART_1.c **** 
 502:Generated_Source\PSoC5/UART_1.c **** 
 503:Generated_Source\PSoC5/UART_1.c ****     /*******************************************************************************
 504:Generated_Source\PSoC5/UART_1.c ****     * Function Name: UART_1_GetChar
 505:Generated_Source\PSoC5/UART_1.c ****     ********************************************************************************
 506:Generated_Source\PSoC5/UART_1.c ****     *
 507:Generated_Source\PSoC5/UART_1.c ****     * Summary:
 508:Generated_Source\PSoC5/UART_1.c ****     *  Returns the last received byte of data. UART_1_GetChar() is
 509:Generated_Source\PSoC5/UART_1.c ****     *  designed for ASCII characters and returns a uint8 where 1 to 255 are values
 510:Generated_Source\PSoC5/UART_1.c ****     *  for valid characters and 0 indicates an error occurred or no data is present.
 511:Generated_Source\PSoC5/UART_1.c ****     *
 512:Generated_Source\PSoC5/UART_1.c ****     * Parameters:
 513:Generated_Source\PSoC5/UART_1.c ****     *  None.
 514:Generated_Source\PSoC5/UART_1.c ****     *
 515:Generated_Source\PSoC5/UART_1.c ****     * Return:
 516:Generated_Source\PSoC5/UART_1.c ****     *  Character read from UART RX buffer. ASCII characters from 1 to 255 are valid.
 517:Generated_Source\PSoC5/UART_1.c ****     *  A returned zero signifies an error condition or no data available.
 518:Generated_Source\PSoC5/UART_1.c ****     *
 519:Generated_Source\PSoC5/UART_1.c ****     * Global Variables:
 520:Generated_Source\PSoC5/UART_1.c ****     *  UART_1_rxBuffer - RAM buffer pointer for save received data.
 521:Generated_Source\PSoC5/UART_1.c ****     *  UART_1_rxBufferWrite - cyclic index for write to rxBuffer,
 522:Generated_Source\PSoC5/UART_1.c ****     *     checked to identify new data.
 523:Generated_Source\PSoC5/UART_1.c ****     *  UART_1_rxBufferRead - cyclic index for read from rxBuffer,
 524:Generated_Source\PSoC5/UART_1.c ****     *     incremented after each byte has been read from buffer.
 525:Generated_Source\PSoC5/UART_1.c ****     *  UART_1_rxBufferLoopDetect - cleared if loop condition was detected
 526:Generated_Source\PSoC5/UART_1.c ****     *     in RX ISR.
 527:Generated_Source\PSoC5/UART_1.c ****     *
 528:Generated_Source\PSoC5/UART_1.c ****     * Reentrant:
 529:Generated_Source\PSoC5/UART_1.c ****     *  No.
 530:Generated_Source\PSoC5/UART_1.c ****     *
 531:Generated_Source\PSoC5/UART_1.c ****     *******************************************************************************/
 532:Generated_Source\PSoC5/UART_1.c ****     uint8 UART_1_GetChar(void) 
 533:Generated_Source\PSoC5/UART_1.c ****     {
 367              		.loc 1 533 0
 368              		.cfi_startproc
 369              		@ args = 0, pretend = 0, frame = 0
 370              		@ frame_needed = 0, uses_anonymous_args = 0
 371              		@ link register save eliminated.
 372              	.LVL25:
 534:Generated_Source\PSoC5/UART_1.c ****         uint8 rxData = 0u;
 535:Generated_Source\PSoC5/UART_1.c ****         uint8 rxStatus;
 536:Generated_Source\PSoC5/UART_1.c **** 
 537:Generated_Source\PSoC5/UART_1.c ****     #if (UART_1_RX_INTERRUPT_ENABLED)
 538:Generated_Source\PSoC5/UART_1.c ****         uint8 locRxBufferRead;
 539:Generated_Source\PSoC5/UART_1.c ****         uint8 locRxBufferWrite;
 540:Generated_Source\PSoC5/UART_1.c **** 
ARM GAS  C:\Users\DELL\AppData\Local\Temp\cc7AnBD9.s 			page 17


 541:Generated_Source\PSoC5/UART_1.c ****         /* Protect variables that could change on interrupt */
 542:Generated_Source\PSoC5/UART_1.c ****         UART_1_DisableRxInt();
 373              		.loc 1 542 0
 374 0000 0122     		movs	r2, #1
 375 0002 194B     		ldr	r3, .L38
 376 0004 1A60     		str	r2, [r3]
 543:Generated_Source\PSoC5/UART_1.c **** 
 544:Generated_Source\PSoC5/UART_1.c ****         locRxBufferRead  = UART_1_rxBufferRead;
 377              		.loc 1 544 0
 378 0006 194A     		ldr	r2, .L38+4
 379 0008 5378     		ldrb	r3, [r2, #1]	@ zero_extendqisi2
 380 000a DBB2     		uxtb	r3, r3
 381              	.LVL26:
 545:Generated_Source\PSoC5/UART_1.c ****         locRxBufferWrite = UART_1_rxBufferWrite;
 382              		.loc 1 545 0
 383 000c 9178     		ldrb	r1, [r2, #2]	@ zero_extendqisi2
 384 000e C9B2     		uxtb	r1, r1
 385              	.LVL27:
 546:Generated_Source\PSoC5/UART_1.c **** 
 547:Generated_Source\PSoC5/UART_1.c ****         if( (UART_1_rxBufferLoopDetect != 0u) || (locRxBufferRead != locRxBufferWrite) )
 386              		.loc 1 547 0
 387 0010 D278     		ldrb	r2, [r2, #3]	@ zero_extendqisi2
 388 0012 12F0FF0F 		tst	r2, #255
 389 0016 01D1     		bne	.L31
 390              		.loc 1 547 0 is_stmt 0 discriminator 1
 391 0018 8B42     		cmp	r3, r1
 392 001a 11D0     		beq	.L32
 393              	.L31:
 548:Generated_Source\PSoC5/UART_1.c ****         {
 549:Generated_Source\PSoC5/UART_1.c ****             rxData = UART_1_rxBuffer[locRxBufferRead];
 394              		.loc 1 549 0 is_stmt 1
 395 001c 144A     		ldr	r2, .L38+8
 396 001e D05C     		ldrb	r0, [r2, r3]	@ zero_extendqisi2
 397 0020 C0B2     		uxtb	r0, r0
 398              	.LVL28:
 550:Generated_Source\PSoC5/UART_1.c ****             locRxBufferRead++;
 399              		.loc 1 550 0
 400 0022 0133     		adds	r3, r3, #1
 401              	.LVL29:
 402 0024 DBB2     		uxtb	r3, r3
 403              	.LVL30:
 551:Generated_Source\PSoC5/UART_1.c ****             if(locRxBufferRead >= UART_1_RX_BUFFER_SIZE)
 404              		.loc 1 551 0
 405 0026 072B     		cmp	r3, #7
 406 0028 00D9     		bls	.L33
 552:Generated_Source\PSoC5/UART_1.c ****             {
 553:Generated_Source\PSoC5/UART_1.c ****                 locRxBufferRead = 0u;
 407              		.loc 1 553 0
 408 002a 0023     		movs	r3, #0
 409              	.LVL31:
 410              	.L33:
 554:Generated_Source\PSoC5/UART_1.c ****             }
 555:Generated_Source\PSoC5/UART_1.c ****             /* Update the real pointer */
 556:Generated_Source\PSoC5/UART_1.c ****             UART_1_rxBufferRead = locRxBufferRead;
 411              		.loc 1 556 0
 412 002c 0F4A     		ldr	r2, .L38+4
 413 002e 5370     		strb	r3, [r2, #1]
ARM GAS  C:\Users\DELL\AppData\Local\Temp\cc7AnBD9.s 			page 18


 557:Generated_Source\PSoC5/UART_1.c **** 
 558:Generated_Source\PSoC5/UART_1.c ****             if(UART_1_rxBufferLoopDetect != 0u)
 414              		.loc 1 558 0
 415 0030 D378     		ldrb	r3, [r2, #3]	@ zero_extendqisi2
 416              	.LVL32:
 417 0032 13F0FF0F 		tst	r3, #255
 418 0036 13D0     		beq	.L34
 559:Generated_Source\PSoC5/UART_1.c ****             {
 560:Generated_Source\PSoC5/UART_1.c ****                 UART_1_rxBufferLoopDetect = 0u;
 419              		.loc 1 560 0
 420 0038 0022     		movs	r2, #0
 421 003a 0C4B     		ldr	r3, .L38+4
 422 003c DA70     		strb	r2, [r3, #3]
 423              	.LVL33:
 424 003e 0FE0     		b	.L34
 425              	.LVL34:
 426              	.L32:
 561:Generated_Source\PSoC5/UART_1.c ****                 #if( (UART_1_RX_INTERRUPT_ENABLED) && (UART_1_FLOW_CONTROL != 0u) )
 562:Generated_Source\PSoC5/UART_1.c ****                     /* When Hardware Flow Control selected - return RX mask */
 563:Generated_Source\PSoC5/UART_1.c ****                     #if( UART_1_HD_ENABLED )
 564:Generated_Source\PSoC5/UART_1.c ****                         if((UART_1_CONTROL_REG & UART_1_CTRL_HD_SEND) == 0u)
 565:Generated_Source\PSoC5/UART_1.c ****                         {   /* In Half duplex mode return RX mask only if
 566:Generated_Source\PSoC5/UART_1.c ****                             *  RX configuration set, otherwise
 567:Generated_Source\PSoC5/UART_1.c ****                             *  mask will be returned in LoadRxConfig() API.
 568:Generated_Source\PSoC5/UART_1.c ****                             */
 569:Generated_Source\PSoC5/UART_1.c ****                             UART_1_RXSTATUS_MASK_REG |= UART_1_RX_STS_FIFO_NOTEMPTY;
 570:Generated_Source\PSoC5/UART_1.c ****                         }
 571:Generated_Source\PSoC5/UART_1.c ****                     #else
 572:Generated_Source\PSoC5/UART_1.c ****                         UART_1_RXSTATUS_MASK_REG |= UART_1_RX_STS_FIFO_NOTEMPTY;
 573:Generated_Source\PSoC5/UART_1.c ****                     #endif /* end UART_1_HD_ENABLED */
 574:Generated_Source\PSoC5/UART_1.c ****                 #endif /* UART_1_RX_INTERRUPT_ENABLED and Hardware flow control*/
 575:Generated_Source\PSoC5/UART_1.c ****             }
 576:Generated_Source\PSoC5/UART_1.c **** 
 577:Generated_Source\PSoC5/UART_1.c ****         }
 578:Generated_Source\PSoC5/UART_1.c ****         else
 579:Generated_Source\PSoC5/UART_1.c ****         {   rxStatus = UART_1_RXSTATUS_REG;
 427              		.loc 1 579 0
 428 0040 0C4B     		ldr	r3, .L38+12
 429              	.LVL35:
 430 0042 1B78     		ldrb	r3, [r3]	@ zero_extendqisi2
 431 0044 DBB2     		uxtb	r3, r3
 432              	.LVL36:
 580:Generated_Source\PSoC5/UART_1.c ****             if((rxStatus & UART_1_RX_STS_FIFO_NOTEMPTY) != 0u)
 433              		.loc 1 580 0
 434 0046 13F0200F 		tst	r3, #32
 435 004a 06D0     		beq	.L36
 581:Generated_Source\PSoC5/UART_1.c ****             {   /* Read received data from FIFO */
 582:Generated_Source\PSoC5/UART_1.c ****                 rxData = UART_1_RXDATA_REG;
 436              		.loc 1 582 0
 437 004c 0A4A     		ldr	r2, .L38+16
 438 004e 1078     		ldrb	r0, [r2]	@ zero_extendqisi2
 439 0050 C0B2     		uxtb	r0, r0
 440              	.LVL37:
 583:Generated_Source\PSoC5/UART_1.c ****                 /*Check status on error*/
 584:Generated_Source\PSoC5/UART_1.c ****                 if((rxStatus & (UART_1_RX_STS_BREAK | UART_1_RX_STS_PAR_ERROR |
 441              		.loc 1 584 0
 442 0052 13F01E0F 		tst	r3, #30
ARM GAS  C:\Users\DELL\AppData\Local\Temp\cc7AnBD9.s 			page 19


 443 0056 02D1     		bne	.L37
 444 0058 02E0     		b	.L34
 445              	.LVL38:
 446              	.L36:
 534:Generated_Source\PSoC5/UART_1.c ****         uint8 rxStatus;
 447              		.loc 1 534 0
 448 005a 0020     		movs	r0, #0
 449 005c 00E0     		b	.L34
 450              	.LVL39:
 451              	.L37:
 585:Generated_Source\PSoC5/UART_1.c ****                                 UART_1_RX_STS_STOP_ERROR | UART_1_RX_STS_OVERRUN)) != 0u)
 586:Generated_Source\PSoC5/UART_1.c ****                 {
 587:Generated_Source\PSoC5/UART_1.c ****                     rxData = 0u;
 452              		.loc 1 587 0
 453 005e 0020     		movs	r0, #0
 454              	.LVL40:
 455              	.L34:
 588:Generated_Source\PSoC5/UART_1.c ****                 }
 589:Generated_Source\PSoC5/UART_1.c ****             }
 590:Generated_Source\PSoC5/UART_1.c ****         }
 591:Generated_Source\PSoC5/UART_1.c **** 
 592:Generated_Source\PSoC5/UART_1.c ****         UART_1_EnableRxInt();
 456              		.loc 1 592 0
 457 0060 0122     		movs	r2, #1
 458 0062 064B     		ldr	r3, .L38+20
 459 0064 1A60     		str	r2, [r3]
 593:Generated_Source\PSoC5/UART_1.c **** 
 594:Generated_Source\PSoC5/UART_1.c ****     #else
 595:Generated_Source\PSoC5/UART_1.c **** 
 596:Generated_Source\PSoC5/UART_1.c ****         rxStatus =UART_1_RXSTATUS_REG;
 597:Generated_Source\PSoC5/UART_1.c ****         if((rxStatus & UART_1_RX_STS_FIFO_NOTEMPTY) != 0u)
 598:Generated_Source\PSoC5/UART_1.c ****         {
 599:Generated_Source\PSoC5/UART_1.c ****             /* Read received data from FIFO */
 600:Generated_Source\PSoC5/UART_1.c ****             rxData = UART_1_RXDATA_REG;
 601:Generated_Source\PSoC5/UART_1.c **** 
 602:Generated_Source\PSoC5/UART_1.c ****             /*Check status on error*/
 603:Generated_Source\PSoC5/UART_1.c ****             if((rxStatus & (UART_1_RX_STS_BREAK | UART_1_RX_STS_PAR_ERROR |
 604:Generated_Source\PSoC5/UART_1.c ****                             UART_1_RX_STS_STOP_ERROR | UART_1_RX_STS_OVERRUN)) != 0u)
 605:Generated_Source\PSoC5/UART_1.c ****             {
 606:Generated_Source\PSoC5/UART_1.c ****                 rxData = 0u;
 607:Generated_Source\PSoC5/UART_1.c ****             }
 608:Generated_Source\PSoC5/UART_1.c ****         }
 609:Generated_Source\PSoC5/UART_1.c ****     #endif /* (UART_1_RX_INTERRUPT_ENABLED) */
 610:Generated_Source\PSoC5/UART_1.c **** 
 611:Generated_Source\PSoC5/UART_1.c ****         return(rxData);
 612:Generated_Source\PSoC5/UART_1.c ****     }
 460              		.loc 1 612 0
 461 0066 7047     		bx	lr
 462              	.L39:
 463              		.align	2
 464              	.L38:
 465 0068 80E100E0 		.word	-536813184
 466 006c 00000000 		.word	.LANCHOR0
 467 0070 00000000 		.word	UART_1_rxBuffer
 468 0074 6C640040 		.word	1073767532
 469 0078 48640040 		.word	1073767496
 470 007c 00E100E0 		.word	-536813312
ARM GAS  C:\Users\DELL\AppData\Local\Temp\cc7AnBD9.s 			page 20


 471              		.cfi_endproc
 472              	.LFE9:
 473              		.size	UART_1_GetChar, .-UART_1_GetChar
 474              		.section	.text.UART_1_GetByte,"ax",%progbits
 475              		.align	2
 476              		.global	UART_1_GetByte
 477              		.thumb
 478              		.thumb_func
 479              		.type	UART_1_GetByte, %function
 480              	UART_1_GetByte:
 481              	.LFB10:
 613:Generated_Source\PSoC5/UART_1.c **** 
 614:Generated_Source\PSoC5/UART_1.c **** 
 615:Generated_Source\PSoC5/UART_1.c ****     /*******************************************************************************
 616:Generated_Source\PSoC5/UART_1.c ****     * Function Name: UART_1_GetByte
 617:Generated_Source\PSoC5/UART_1.c ****     ********************************************************************************
 618:Generated_Source\PSoC5/UART_1.c ****     *
 619:Generated_Source\PSoC5/UART_1.c ****     * Summary:
 620:Generated_Source\PSoC5/UART_1.c ****     *  Reads UART RX buffer immediately, returns received character and error
 621:Generated_Source\PSoC5/UART_1.c ****     *  condition.
 622:Generated_Source\PSoC5/UART_1.c ****     *
 623:Generated_Source\PSoC5/UART_1.c ****     * Parameters:
 624:Generated_Source\PSoC5/UART_1.c ****     *  None.
 625:Generated_Source\PSoC5/UART_1.c ****     *
 626:Generated_Source\PSoC5/UART_1.c ****     * Return:
 627:Generated_Source\PSoC5/UART_1.c ****     *  MSB contains status and LSB contains UART RX data. If the MSB is nonzero,
 628:Generated_Source\PSoC5/UART_1.c ****     *  an error has occurred.
 629:Generated_Source\PSoC5/UART_1.c ****     *
 630:Generated_Source\PSoC5/UART_1.c ****     * Reentrant:
 631:Generated_Source\PSoC5/UART_1.c ****     *  No.
 632:Generated_Source\PSoC5/UART_1.c ****     *
 633:Generated_Source\PSoC5/UART_1.c ****     *******************************************************************************/
 634:Generated_Source\PSoC5/UART_1.c ****     uint16 UART_1_GetByte(void) 
 635:Generated_Source\PSoC5/UART_1.c ****     {
 482              		.loc 1 635 0
 483              		.cfi_startproc
 484              		@ args = 0, pretend = 0, frame = 0
 485              		@ frame_needed = 0, uses_anonymous_args = 0
 486 0000 10B5     		push	{r4, lr}
 487              		.cfi_def_cfa_offset 8
 488              		.cfi_offset 4, -8
 489              		.cfi_offset 14, -4
 636:Generated_Source\PSoC5/UART_1.c ****         
 637:Generated_Source\PSoC5/UART_1.c ****     #if (UART_1_RX_INTERRUPT_ENABLED)
 638:Generated_Source\PSoC5/UART_1.c ****         uint16 locErrorStatus;
 639:Generated_Source\PSoC5/UART_1.c ****         /* Protect variables that could change on interrupt */
 640:Generated_Source\PSoC5/UART_1.c ****         UART_1_DisableRxInt();
 490              		.loc 1 640 0
 491 0002 0123     		movs	r3, #1
 492 0004 064A     		ldr	r2, .L42
 493 0006 1360     		str	r3, [r2]
 641:Generated_Source\PSoC5/UART_1.c ****         locErrorStatus = (uint16)UART_1_errorStatus;
 494              		.loc 1 641 0
 495 0008 064A     		ldr	r2, .L42+4
 496 000a 5479     		ldrb	r4, [r2, #5]	@ zero_extendqisi2
 497              	.LVL41:
 642:Generated_Source\PSoC5/UART_1.c ****         UART_1_errorStatus = 0u;
ARM GAS  C:\Users\DELL\AppData\Local\Temp\cc7AnBD9.s 			page 21


 498              		.loc 1 642 0
 499 000c 0021     		movs	r1, #0
 500 000e 5171     		strb	r1, [r2, #5]
 643:Generated_Source\PSoC5/UART_1.c ****         UART_1_EnableRxInt();
 501              		.loc 1 643 0
 502 0010 054A     		ldr	r2, .L42+8
 503 0012 1360     		str	r3, [r2]
 644:Generated_Source\PSoC5/UART_1.c ****         return ( (uint16)(locErrorStatus << 8u) | UART_1_ReadRxData() );
 504              		.loc 1 644 0
 505 0014 2402     		lsls	r4, r4, #8
 506              	.LVL42:
 507 0016 FFF7FEFF 		bl	UART_1_ReadRxData
 508              	.LVL43:
 509 001a 2043     		orrs	r0, r0, r4
 645:Generated_Source\PSoC5/UART_1.c ****     #else
 646:Generated_Source\PSoC5/UART_1.c ****         return ( ((uint16)UART_1_ReadRxStatus() << 8u) | UART_1_ReadRxData() );
 647:Generated_Source\PSoC5/UART_1.c ****     #endif /* UART_1_RX_INTERRUPT_ENABLED */
 648:Generated_Source\PSoC5/UART_1.c ****         
 649:Generated_Source\PSoC5/UART_1.c ****     }
 510              		.loc 1 649 0
 511 001c 80B2     		uxth	r0, r0
 512 001e 10BD     		pop	{r4, pc}
 513              	.L43:
 514              		.align	2
 515              	.L42:
 516 0020 80E100E0 		.word	-536813184
 517 0024 00000000 		.word	.LANCHOR0
 518 0028 00E100E0 		.word	-536813312
 519              		.cfi_endproc
 520              	.LFE10:
 521              		.size	UART_1_GetByte, .-UART_1_GetByte
 522              		.section	.text.UART_1_GetRxBufferSize,"ax",%progbits
 523              		.align	2
 524              		.global	UART_1_GetRxBufferSize
 525              		.thumb
 526              		.thumb_func
 527              		.type	UART_1_GetRxBufferSize, %function
 528              	UART_1_GetRxBufferSize:
 529              	.LFB11:
 650:Generated_Source\PSoC5/UART_1.c **** 
 651:Generated_Source\PSoC5/UART_1.c **** 
 652:Generated_Source\PSoC5/UART_1.c ****     /*******************************************************************************
 653:Generated_Source\PSoC5/UART_1.c ****     * Function Name: UART_1_GetRxBufferSize
 654:Generated_Source\PSoC5/UART_1.c ****     ********************************************************************************
 655:Generated_Source\PSoC5/UART_1.c ****     *
 656:Generated_Source\PSoC5/UART_1.c ****     * Summary:
 657:Generated_Source\PSoC5/UART_1.c ****     *  Returns the number of received bytes available in the RX buffer.
 658:Generated_Source\PSoC5/UART_1.c ****     *  * RX software buffer is disabled (RX Buffer Size parameter is equal to 4): 
 659:Generated_Source\PSoC5/UART_1.c ****     *    returns 0 for empty RX FIFO or 1 for not empty RX FIFO.
 660:Generated_Source\PSoC5/UART_1.c ****     *  * RX software buffer is enabled: returns the number of bytes available in 
 661:Generated_Source\PSoC5/UART_1.c ****     *    the RX software buffer. Bytes available in the RX FIFO do not take to 
 662:Generated_Source\PSoC5/UART_1.c ****     *    account.
 663:Generated_Source\PSoC5/UART_1.c ****     *
 664:Generated_Source\PSoC5/UART_1.c ****     * Parameters:
 665:Generated_Source\PSoC5/UART_1.c ****     *  None.
 666:Generated_Source\PSoC5/UART_1.c ****     *
 667:Generated_Source\PSoC5/UART_1.c ****     * Return:
ARM GAS  C:\Users\DELL\AppData\Local\Temp\cc7AnBD9.s 			page 22


 668:Generated_Source\PSoC5/UART_1.c ****     *  uint8: Number of bytes in the RX buffer. 
 669:Generated_Source\PSoC5/UART_1.c ****     *    Return value type depends on RX Buffer Size parameter.
 670:Generated_Source\PSoC5/UART_1.c ****     *
 671:Generated_Source\PSoC5/UART_1.c ****     * Global Variables:
 672:Generated_Source\PSoC5/UART_1.c ****     *  UART_1_rxBufferWrite - used to calculate left bytes.
 673:Generated_Source\PSoC5/UART_1.c ****     *  UART_1_rxBufferRead - used to calculate left bytes.
 674:Generated_Source\PSoC5/UART_1.c ****     *  UART_1_rxBufferLoopDetect - checked to decide left bytes amount.
 675:Generated_Source\PSoC5/UART_1.c ****     *
 676:Generated_Source\PSoC5/UART_1.c ****     * Reentrant:
 677:Generated_Source\PSoC5/UART_1.c ****     *  No.
 678:Generated_Source\PSoC5/UART_1.c ****     *
 679:Generated_Source\PSoC5/UART_1.c ****     * Theory:
 680:Generated_Source\PSoC5/UART_1.c ****     *  Allows the user to find out how full the RX Buffer is.
 681:Generated_Source\PSoC5/UART_1.c ****     *
 682:Generated_Source\PSoC5/UART_1.c ****     *******************************************************************************/
 683:Generated_Source\PSoC5/UART_1.c ****     uint8 UART_1_GetRxBufferSize(void)
 684:Generated_Source\PSoC5/UART_1.c ****                                                             
 685:Generated_Source\PSoC5/UART_1.c ****     {
 530              		.loc 1 685 0
 531              		.cfi_startproc
 532              		@ args = 0, pretend = 0, frame = 0
 533              		@ frame_needed = 0, uses_anonymous_args = 0
 534              		@ link register save eliminated.
 686:Generated_Source\PSoC5/UART_1.c ****         uint8 size;
 687:Generated_Source\PSoC5/UART_1.c **** 
 688:Generated_Source\PSoC5/UART_1.c ****     #if (UART_1_RX_INTERRUPT_ENABLED)
 689:Generated_Source\PSoC5/UART_1.c **** 
 690:Generated_Source\PSoC5/UART_1.c ****         /* Protect variables that could change on interrupt */
 691:Generated_Source\PSoC5/UART_1.c ****         UART_1_DisableRxInt();
 535              		.loc 1 691 0
 536 0000 0122     		movs	r2, #1
 537 0002 144B     		ldr	r3, .L49
 538 0004 1A60     		str	r2, [r3]
 692:Generated_Source\PSoC5/UART_1.c **** 
 693:Generated_Source\PSoC5/UART_1.c ****         if(UART_1_rxBufferRead == UART_1_rxBufferWrite)
 539              		.loc 1 693 0
 540 0006 144B     		ldr	r3, .L49+4
 541 0008 5A78     		ldrb	r2, [r3, #1]	@ zero_extendqisi2
 542 000a D2B2     		uxtb	r2, r2
 543 000c 9B78     		ldrb	r3, [r3, #2]	@ zero_extendqisi2
 544 000e DBB2     		uxtb	r3, r3
 545 0010 9A42     		cmp	r2, r3
 546 0012 06D1     		bne	.L45
 694:Generated_Source\PSoC5/UART_1.c ****         {
 695:Generated_Source\PSoC5/UART_1.c ****             if(UART_1_rxBufferLoopDetect != 0u)
 547              		.loc 1 695 0
 548 0014 104B     		ldr	r3, .L49+4
 549 0016 DB78     		ldrb	r3, [r3, #3]	@ zero_extendqisi2
 550 0018 13F0FF0F 		tst	r3, #255
 551 001c 15D0     		beq	.L48
 696:Generated_Source\PSoC5/UART_1.c ****             {
 697:Generated_Source\PSoC5/UART_1.c ****                 size = UART_1_RX_BUFFER_SIZE;
 552              		.loc 1 697 0
 553 001e 0820     		movs	r0, #8
 554 0020 14E0     		b	.L46
 555              	.L45:
 698:Generated_Source\PSoC5/UART_1.c ****             }
ARM GAS  C:\Users\DELL\AppData\Local\Temp\cc7AnBD9.s 			page 23


 699:Generated_Source\PSoC5/UART_1.c ****             else
 700:Generated_Source\PSoC5/UART_1.c ****             {
 701:Generated_Source\PSoC5/UART_1.c ****                 size = 0u;
 702:Generated_Source\PSoC5/UART_1.c ****             }
 703:Generated_Source\PSoC5/UART_1.c ****         }
 704:Generated_Source\PSoC5/UART_1.c ****         else if(UART_1_rxBufferRead < UART_1_rxBufferWrite)
 556              		.loc 1 704 0
 557 0022 0D4B     		ldr	r3, .L49+4
 558 0024 5A78     		ldrb	r2, [r3, #1]	@ zero_extendqisi2
 559 0026 D2B2     		uxtb	r2, r2
 560 0028 9B78     		ldrb	r3, [r3, #2]	@ zero_extendqisi2
 561 002a DBB2     		uxtb	r3, r3
 562 002c 9A42     		cmp	r2, r3
 563 002e 05D2     		bcs	.L47
 705:Generated_Source\PSoC5/UART_1.c ****         {
 706:Generated_Source\PSoC5/UART_1.c ****             size = (UART_1_rxBufferWrite - UART_1_rxBufferRead);
 564              		.loc 1 706 0
 565 0030 094A     		ldr	r2, .L49+4
 566 0032 9378     		ldrb	r3, [r2, #2]	@ zero_extendqisi2
 567 0034 5078     		ldrb	r0, [r2, #1]	@ zero_extendqisi2
 568 0036 181A     		subs	r0, r3, r0
 569 0038 C0B2     		uxtb	r0, r0
 570              	.LVL44:
 571 003a 07E0     		b	.L46
 572              	.LVL45:
 573              	.L47:
 707:Generated_Source\PSoC5/UART_1.c ****         }
 708:Generated_Source\PSoC5/UART_1.c ****         else
 709:Generated_Source\PSoC5/UART_1.c ****         {
 710:Generated_Source\PSoC5/UART_1.c ****             size = (UART_1_RX_BUFFER_SIZE - UART_1_rxBufferRead) + UART_1_rxBufferWrite;
 574              		.loc 1 710 0
 575 003c 064A     		ldr	r2, .L49+4
 576 003e 9378     		ldrb	r3, [r2, #2]	@ zero_extendqisi2
 577 0040 5078     		ldrb	r0, [r2, #1]	@ zero_extendqisi2
 578 0042 181A     		subs	r0, r3, r0
 579 0044 0830     		adds	r0, r0, #8
 580 0046 C0B2     		uxtb	r0, r0
 581              	.LVL46:
 582 0048 00E0     		b	.L46
 583              	.LVL47:
 584              	.L48:
 701:Generated_Source\PSoC5/UART_1.c ****             }
 585              		.loc 1 701 0
 586 004a 0020     		movs	r0, #0
 587              	.L46:
 588              	.LVL48:
 711:Generated_Source\PSoC5/UART_1.c ****         }
 712:Generated_Source\PSoC5/UART_1.c **** 
 713:Generated_Source\PSoC5/UART_1.c ****         UART_1_EnableRxInt();
 589              		.loc 1 713 0
 590 004c 0122     		movs	r2, #1
 591 004e 034B     		ldr	r3, .L49+8
 592 0050 1A60     		str	r2, [r3]
 714:Generated_Source\PSoC5/UART_1.c **** 
 715:Generated_Source\PSoC5/UART_1.c ****     #else
 716:Generated_Source\PSoC5/UART_1.c **** 
 717:Generated_Source\PSoC5/UART_1.c ****         /* We can only know if there is data in the fifo. */
ARM GAS  C:\Users\DELL\AppData\Local\Temp\cc7AnBD9.s 			page 24


 718:Generated_Source\PSoC5/UART_1.c ****         size = ((UART_1_RXSTATUS_REG & UART_1_RX_STS_FIFO_NOTEMPTY) != 0u) ? 1u : 0u;
 719:Generated_Source\PSoC5/UART_1.c **** 
 720:Generated_Source\PSoC5/UART_1.c ****     #endif /* (UART_1_RX_INTERRUPT_ENABLED) */
 721:Generated_Source\PSoC5/UART_1.c **** 
 722:Generated_Source\PSoC5/UART_1.c ****         return(size);
 723:Generated_Source\PSoC5/UART_1.c ****     }
 593              		.loc 1 723 0
 594 0052 7047     		bx	lr
 595              	.L50:
 596              		.align	2
 597              	.L49:
 598 0054 80E100E0 		.word	-536813184
 599 0058 00000000 		.word	.LANCHOR0
 600 005c 00E100E0 		.word	-536813312
 601              		.cfi_endproc
 602              	.LFE11:
 603              		.size	UART_1_GetRxBufferSize, .-UART_1_GetRxBufferSize
 604              		.section	.text.UART_1_ClearRxBuffer,"ax",%progbits
 605              		.align	2
 606              		.global	UART_1_ClearRxBuffer
 607              		.thumb
 608              		.thumb_func
 609              		.type	UART_1_ClearRxBuffer, %function
 610              	UART_1_ClearRxBuffer:
 611              	.LFB12:
 724:Generated_Source\PSoC5/UART_1.c **** 
 725:Generated_Source\PSoC5/UART_1.c **** 
 726:Generated_Source\PSoC5/UART_1.c ****     /*******************************************************************************
 727:Generated_Source\PSoC5/UART_1.c ****     * Function Name: UART_1_ClearRxBuffer
 728:Generated_Source\PSoC5/UART_1.c ****     ********************************************************************************
 729:Generated_Source\PSoC5/UART_1.c ****     *
 730:Generated_Source\PSoC5/UART_1.c ****     * Summary:
 731:Generated_Source\PSoC5/UART_1.c ****     *  Clears the receiver memory buffer and hardware RX FIFO of all received data.
 732:Generated_Source\PSoC5/UART_1.c ****     *
 733:Generated_Source\PSoC5/UART_1.c ****     * Parameters:
 734:Generated_Source\PSoC5/UART_1.c ****     *  None.
 735:Generated_Source\PSoC5/UART_1.c ****     *
 736:Generated_Source\PSoC5/UART_1.c ****     * Return:
 737:Generated_Source\PSoC5/UART_1.c ****     *  None.
 738:Generated_Source\PSoC5/UART_1.c ****     *
 739:Generated_Source\PSoC5/UART_1.c ****     * Global Variables:
 740:Generated_Source\PSoC5/UART_1.c ****     *  UART_1_rxBufferWrite - cleared to zero.
 741:Generated_Source\PSoC5/UART_1.c ****     *  UART_1_rxBufferRead - cleared to zero.
 742:Generated_Source\PSoC5/UART_1.c ****     *  UART_1_rxBufferLoopDetect - cleared to zero.
 743:Generated_Source\PSoC5/UART_1.c ****     *  UART_1_rxBufferOverflow - cleared to zero.
 744:Generated_Source\PSoC5/UART_1.c ****     *
 745:Generated_Source\PSoC5/UART_1.c ****     * Reentrant:
 746:Generated_Source\PSoC5/UART_1.c ****     *  No.
 747:Generated_Source\PSoC5/UART_1.c ****     *
 748:Generated_Source\PSoC5/UART_1.c ****     * Theory:
 749:Generated_Source\PSoC5/UART_1.c ****     *  Setting the pointers to zero makes the system believe there is no data to
 750:Generated_Source\PSoC5/UART_1.c ****     *  read and writing will resume at address 0 overwriting any data that may
 751:Generated_Source\PSoC5/UART_1.c ****     *  have remained in the RAM.
 752:Generated_Source\PSoC5/UART_1.c ****     *
 753:Generated_Source\PSoC5/UART_1.c ****     * Side Effects:
 754:Generated_Source\PSoC5/UART_1.c ****     *  Any received data not read from the RAM or FIFO buffer will be lost.
 755:Generated_Source\PSoC5/UART_1.c ****     *
ARM GAS  C:\Users\DELL\AppData\Local\Temp\cc7AnBD9.s 			page 25


 756:Generated_Source\PSoC5/UART_1.c ****     *******************************************************************************/
 757:Generated_Source\PSoC5/UART_1.c ****     void UART_1_ClearRxBuffer(void) 
 758:Generated_Source\PSoC5/UART_1.c ****     {
 612              		.loc 1 758 0
 613              		.cfi_startproc
 614              		@ args = 0, pretend = 0, frame = 0
 615              		@ frame_needed = 0, uses_anonymous_args = 0
 616 0000 08B5     		push	{r3, lr}
 617              		.cfi_def_cfa_offset 8
 618              		.cfi_offset 3, -8
 619              		.cfi_offset 14, -4
 759:Generated_Source\PSoC5/UART_1.c ****         uint8 enableInterrupts;
 760:Generated_Source\PSoC5/UART_1.c **** 
 761:Generated_Source\PSoC5/UART_1.c ****         /* Clear the HW FIFO */
 762:Generated_Source\PSoC5/UART_1.c ****         enableInterrupts = CyEnterCriticalSection();
 620              		.loc 1 762 0
 621 0002 FFF7FEFF 		bl	CyEnterCriticalSection
 622              	.LVL49:
 763:Generated_Source\PSoC5/UART_1.c ****         UART_1_RXDATA_AUX_CTL_REG |= (uint8)  UART_1_RX_FIFO_CLR;
 623              		.loc 1 763 0
 624 0006 0B4B     		ldr	r3, .L53
 625 0008 1A78     		ldrb	r2, [r3]	@ zero_extendqisi2
 626 000a 42F00102 		orr	r2, r2, #1
 627 000e 1A70     		strb	r2, [r3]
 764:Generated_Source\PSoC5/UART_1.c ****         UART_1_RXDATA_AUX_CTL_REG &= (uint8) ~UART_1_RX_FIFO_CLR;
 628              		.loc 1 764 0
 629 0010 1A78     		ldrb	r2, [r3]	@ zero_extendqisi2
 630 0012 02F0FE02 		and	r2, r2, #254
 631 0016 1A70     		strb	r2, [r3]
 765:Generated_Source\PSoC5/UART_1.c ****         CyExitCriticalSection(enableInterrupts);
 632              		.loc 1 765 0
 633 0018 FFF7FEFF 		bl	CyExitCriticalSection
 634              	.LVL50:
 766:Generated_Source\PSoC5/UART_1.c **** 
 767:Generated_Source\PSoC5/UART_1.c ****     #if (UART_1_RX_INTERRUPT_ENABLED)
 768:Generated_Source\PSoC5/UART_1.c **** 
 769:Generated_Source\PSoC5/UART_1.c ****         /* Protect variables that could change on interrupt. */
 770:Generated_Source\PSoC5/UART_1.c ****         UART_1_DisableRxInt();
 635              		.loc 1 770 0
 636 001c 0121     		movs	r1, #1
 637 001e 064B     		ldr	r3, .L53+4
 638 0020 1960     		str	r1, [r3]
 771:Generated_Source\PSoC5/UART_1.c **** 
 772:Generated_Source\PSoC5/UART_1.c ****         UART_1_rxBufferRead = 0u;
 639              		.loc 1 772 0
 640 0022 064B     		ldr	r3, .L53+8
 641 0024 0022     		movs	r2, #0
 642 0026 5A70     		strb	r2, [r3, #1]
 773:Generated_Source\PSoC5/UART_1.c ****         UART_1_rxBufferWrite = 0u;
 643              		.loc 1 773 0
 644 0028 9A70     		strb	r2, [r3, #2]
 774:Generated_Source\PSoC5/UART_1.c ****         UART_1_rxBufferLoopDetect = 0u;
 645              		.loc 1 774 0
 646 002a DA70     		strb	r2, [r3, #3]
 775:Generated_Source\PSoC5/UART_1.c ****         UART_1_rxBufferOverflow = 0u;
 647              		.loc 1 775 0
 648 002c 1A71     		strb	r2, [r3, #4]
ARM GAS  C:\Users\DELL\AppData\Local\Temp\cc7AnBD9.s 			page 26


 776:Generated_Source\PSoC5/UART_1.c **** 
 777:Generated_Source\PSoC5/UART_1.c ****         UART_1_EnableRxInt();
 649              		.loc 1 777 0
 650 002e 044B     		ldr	r3, .L53+12
 651 0030 1960     		str	r1, [r3]
 652 0032 08BD     		pop	{r3, pc}
 653              	.L54:
 654              		.align	2
 655              	.L53:
 656 0034 98640040 		.word	1073767576
 657 0038 80E100E0 		.word	-536813184
 658 003c 00000000 		.word	.LANCHOR0
 659 0040 00E100E0 		.word	-536813312
 660              		.cfi_endproc
 661              	.LFE12:
 662              		.size	UART_1_ClearRxBuffer, .-UART_1_ClearRxBuffer
 663              		.section	.text.UART_1_SetRxAddressMode,"ax",%progbits
 664              		.align	2
 665              		.global	UART_1_SetRxAddressMode
 666              		.thumb
 667              		.thumb_func
 668              		.type	UART_1_SetRxAddressMode, %function
 669              	UART_1_SetRxAddressMode:
 670              	.LFB13:
 778:Generated_Source\PSoC5/UART_1.c **** 
 779:Generated_Source\PSoC5/UART_1.c ****     #endif /* (UART_1_RX_INTERRUPT_ENABLED) */
 780:Generated_Source\PSoC5/UART_1.c **** 
 781:Generated_Source\PSoC5/UART_1.c ****     }
 782:Generated_Source\PSoC5/UART_1.c **** 
 783:Generated_Source\PSoC5/UART_1.c **** 
 784:Generated_Source\PSoC5/UART_1.c ****     /*******************************************************************************
 785:Generated_Source\PSoC5/UART_1.c ****     * Function Name: UART_1_SetRxAddressMode
 786:Generated_Source\PSoC5/UART_1.c ****     ********************************************************************************
 787:Generated_Source\PSoC5/UART_1.c ****     *
 788:Generated_Source\PSoC5/UART_1.c ****     * Summary:
 789:Generated_Source\PSoC5/UART_1.c ****     *  Sets the software controlled Addressing mode used by the RX portion of the
 790:Generated_Source\PSoC5/UART_1.c ****     *  UART.
 791:Generated_Source\PSoC5/UART_1.c ****     *
 792:Generated_Source\PSoC5/UART_1.c ****     * Parameters:
 793:Generated_Source\PSoC5/UART_1.c ****     *  addressMode: Enumerated value indicating the mode of RX addressing
 794:Generated_Source\PSoC5/UART_1.c ****     *  UART_1__B_UART__AM_SW_BYTE_BYTE -  Software Byte-by-Byte address
 795:Generated_Source\PSoC5/UART_1.c ****     *                                               detection
 796:Generated_Source\PSoC5/UART_1.c ****     *  UART_1__B_UART__AM_SW_DETECT_TO_BUFFER - Software Detect to Buffer
 797:Generated_Source\PSoC5/UART_1.c ****     *                                               address detection
 798:Generated_Source\PSoC5/UART_1.c ****     *  UART_1__B_UART__AM_HW_BYTE_BY_BYTE - Hardware Byte-by-Byte address
 799:Generated_Source\PSoC5/UART_1.c ****     *                                               detection
 800:Generated_Source\PSoC5/UART_1.c ****     *  UART_1__B_UART__AM_HW_DETECT_TO_BUFFER - Hardware Detect to Buffer
 801:Generated_Source\PSoC5/UART_1.c ****     *                                               address detection
 802:Generated_Source\PSoC5/UART_1.c ****     *  UART_1__B_UART__AM_NONE - No address detection
 803:Generated_Source\PSoC5/UART_1.c ****     *
 804:Generated_Source\PSoC5/UART_1.c ****     * Return:
 805:Generated_Source\PSoC5/UART_1.c ****     *  None.
 806:Generated_Source\PSoC5/UART_1.c ****     *
 807:Generated_Source\PSoC5/UART_1.c ****     * Global Variables:
 808:Generated_Source\PSoC5/UART_1.c ****     *  UART_1_rxAddressMode - the parameter stored in this variable for
 809:Generated_Source\PSoC5/UART_1.c ****     *   the farther usage in RX ISR.
 810:Generated_Source\PSoC5/UART_1.c ****     *  UART_1_rxAddressDetected - set to initial state (0).
ARM GAS  C:\Users\DELL\AppData\Local\Temp\cc7AnBD9.s 			page 27


 811:Generated_Source\PSoC5/UART_1.c ****     *
 812:Generated_Source\PSoC5/UART_1.c ****     *******************************************************************************/
 813:Generated_Source\PSoC5/UART_1.c ****     void UART_1_SetRxAddressMode(uint8 addressMode)
 814:Generated_Source\PSoC5/UART_1.c ****                                                         
 815:Generated_Source\PSoC5/UART_1.c ****     {
 671              		.loc 1 815 0
 672              		.cfi_startproc
 673              		@ args = 0, pretend = 0, frame = 0
 674              		@ frame_needed = 0, uses_anonymous_args = 0
 675              		@ link register save eliminated.
 676              	.LVL51:
 816:Generated_Source\PSoC5/UART_1.c ****         #if(UART_1_RXHW_ADDRESS_ENABLED)
 817:Generated_Source\PSoC5/UART_1.c ****             #if(UART_1_CONTROL_REG_REMOVED)
 818:Generated_Source\PSoC5/UART_1.c ****                 if(0u != addressMode)
 819:Generated_Source\PSoC5/UART_1.c ****                 {
 820:Generated_Source\PSoC5/UART_1.c ****                     /* Suppress compiler warning */
 821:Generated_Source\PSoC5/UART_1.c ****                 }
 822:Generated_Source\PSoC5/UART_1.c ****             #else /* UART_1_CONTROL_REG_REMOVED */
 823:Generated_Source\PSoC5/UART_1.c ****                 uint8 tmpCtrl;
 824:Generated_Source\PSoC5/UART_1.c ****                 tmpCtrl = UART_1_CONTROL_REG & (uint8)~UART_1_CTRL_RXADDR_MODE_MASK;
 677              		.loc 1 824 0
 678 0000 0649     		ldr	r1, .L56
 679 0002 0B78     		ldrb	r3, [r1]	@ zero_extendqisi2
 680 0004 03F01F02 		and	r2, r3, #31
 681              	.LVL52:
 825:Generated_Source\PSoC5/UART_1.c ****                 tmpCtrl |= (uint8)(addressMode << UART_1_CTRL_RXADDR_MODE0_SHIFT);
 682              		.loc 1 825 0
 683 0008 4301     		lsls	r3, r0, #5
 684 000a DBB2     		uxtb	r3, r3
 685 000c 1343     		orrs	r3, r3, r2
 686              	.LVL53:
 826:Generated_Source\PSoC5/UART_1.c ****                 UART_1_CONTROL_REG = tmpCtrl;
 687              		.loc 1 826 0
 688 000e 0B70     		strb	r3, [r1]
 827:Generated_Source\PSoC5/UART_1.c **** 
 828:Generated_Source\PSoC5/UART_1.c ****                 #if(UART_1_RX_INTERRUPT_ENABLED && \
 829:Generated_Source\PSoC5/UART_1.c ****                    (UART_1_RXBUFFERSIZE > UART_1_FIFO_LENGTH) )
 830:Generated_Source\PSoC5/UART_1.c ****                     UART_1_rxAddressMode = addressMode;
 689              		.loc 1 830 0
 690 0010 034B     		ldr	r3, .L56+4
 691              	.LVL54:
 692 0012 1870     		strb	r0, [r3]
 693              	.LVL55:
 831:Generated_Source\PSoC5/UART_1.c ****                     UART_1_rxAddressDetected = 0u;
 694              		.loc 1 831 0
 695 0014 0022     		movs	r2, #0
 696              	.LVL56:
 697 0016 034B     		ldr	r3, .L56+8
 698 0018 1A70     		strb	r2, [r3]
 699 001a 7047     		bx	lr
 700              	.L57:
 701              		.align	2
 702              	.L56:
 703 001c 7B640040 		.word	1073767547
 704 0020 00000000 		.word	.LANCHOR1
 705 0024 00000000 		.word	.LANCHOR0
 706              		.cfi_endproc
ARM GAS  C:\Users\DELL\AppData\Local\Temp\cc7AnBD9.s 			page 28


 707              	.LFE13:
 708              		.size	UART_1_SetRxAddressMode, .-UART_1_SetRxAddressMode
 709              		.section	.text.UART_1_SetRxAddress1,"ax",%progbits
 710              		.align	2
 711              		.global	UART_1_SetRxAddress1
 712              		.thumb
 713              		.thumb_func
 714              		.type	UART_1_SetRxAddress1, %function
 715              	UART_1_SetRxAddress1:
 716              	.LFB14:
 832:Generated_Source\PSoC5/UART_1.c ****                 #endif /* End UART_1_RXBUFFERSIZE > UART_1_FIFO_LENGTH*/
 833:Generated_Source\PSoC5/UART_1.c ****             #endif /* End UART_1_CONTROL_REG_REMOVED */
 834:Generated_Source\PSoC5/UART_1.c ****         #else /* UART_1_RXHW_ADDRESS_ENABLED */
 835:Generated_Source\PSoC5/UART_1.c ****             if(0u != addressMode)
 836:Generated_Source\PSoC5/UART_1.c ****             {
 837:Generated_Source\PSoC5/UART_1.c ****                 /* Suppress compiler warning */
 838:Generated_Source\PSoC5/UART_1.c ****             }
 839:Generated_Source\PSoC5/UART_1.c ****         #endif /* End UART_1_RXHW_ADDRESS_ENABLED */
 840:Generated_Source\PSoC5/UART_1.c ****     }
 841:Generated_Source\PSoC5/UART_1.c **** 
 842:Generated_Source\PSoC5/UART_1.c **** 
 843:Generated_Source\PSoC5/UART_1.c ****     /*******************************************************************************
 844:Generated_Source\PSoC5/UART_1.c ****     * Function Name: UART_1_SetRxAddress1
 845:Generated_Source\PSoC5/UART_1.c ****     ********************************************************************************
 846:Generated_Source\PSoC5/UART_1.c ****     *
 847:Generated_Source\PSoC5/UART_1.c ****     * Summary:
 848:Generated_Source\PSoC5/UART_1.c ****     *  Sets the first of two hardware-detectable receiver addresses.
 849:Generated_Source\PSoC5/UART_1.c ****     *
 850:Generated_Source\PSoC5/UART_1.c ****     * Parameters:
 851:Generated_Source\PSoC5/UART_1.c ****     *  address: Address #1 for hardware address detection.
 852:Generated_Source\PSoC5/UART_1.c ****     *
 853:Generated_Source\PSoC5/UART_1.c ****     * Return:
 854:Generated_Source\PSoC5/UART_1.c ****     *  None.
 855:Generated_Source\PSoC5/UART_1.c ****     *
 856:Generated_Source\PSoC5/UART_1.c ****     *******************************************************************************/
 857:Generated_Source\PSoC5/UART_1.c ****     void UART_1_SetRxAddress1(uint8 address) 
 858:Generated_Source\PSoC5/UART_1.c ****     {
 717              		.loc 1 858 0
 718              		.cfi_startproc
 719              		@ args = 0, pretend = 0, frame = 0
 720              		@ frame_needed = 0, uses_anonymous_args = 0
 721              		@ link register save eliminated.
 722              	.LVL57:
 859:Generated_Source\PSoC5/UART_1.c ****         UART_1_RXADDRESS1_REG = address;
 723              		.loc 1 859 0
 724 0000 014B     		ldr	r3, .L59
 725 0002 1870     		strb	r0, [r3]
 726 0004 7047     		bx	lr
 727              	.L60:
 728 0006 00BF     		.align	2
 729              	.L59:
 730 0008 28640040 		.word	1073767464
 731              		.cfi_endproc
 732              	.LFE14:
 733              		.size	UART_1_SetRxAddress1, .-UART_1_SetRxAddress1
 734              		.section	.text.UART_1_SetRxAddress2,"ax",%progbits
 735              		.align	2
ARM GAS  C:\Users\DELL\AppData\Local\Temp\cc7AnBD9.s 			page 29


 736              		.global	UART_1_SetRxAddress2
 737              		.thumb
 738              		.thumb_func
 739              		.type	UART_1_SetRxAddress2, %function
 740              	UART_1_SetRxAddress2:
 741              	.LFB15:
 860:Generated_Source\PSoC5/UART_1.c ****     }
 861:Generated_Source\PSoC5/UART_1.c **** 
 862:Generated_Source\PSoC5/UART_1.c **** 
 863:Generated_Source\PSoC5/UART_1.c ****     /*******************************************************************************
 864:Generated_Source\PSoC5/UART_1.c ****     * Function Name: UART_1_SetRxAddress2
 865:Generated_Source\PSoC5/UART_1.c ****     ********************************************************************************
 866:Generated_Source\PSoC5/UART_1.c ****     *
 867:Generated_Source\PSoC5/UART_1.c ****     * Summary:
 868:Generated_Source\PSoC5/UART_1.c ****     *  Sets the second of two hardware-detectable receiver addresses.
 869:Generated_Source\PSoC5/UART_1.c ****     *
 870:Generated_Source\PSoC5/UART_1.c ****     * Parameters:
 871:Generated_Source\PSoC5/UART_1.c ****     *  address: Address #2 for hardware address detection.
 872:Generated_Source\PSoC5/UART_1.c ****     *
 873:Generated_Source\PSoC5/UART_1.c ****     * Return:
 874:Generated_Source\PSoC5/UART_1.c ****     *  None.
 875:Generated_Source\PSoC5/UART_1.c ****     *
 876:Generated_Source\PSoC5/UART_1.c ****     *******************************************************************************/
 877:Generated_Source\PSoC5/UART_1.c ****     void UART_1_SetRxAddress2(uint8 address) 
 878:Generated_Source\PSoC5/UART_1.c ****     {
 742              		.loc 1 878 0
 743              		.cfi_startproc
 744              		@ args = 0, pretend = 0, frame = 0
 745              		@ frame_needed = 0, uses_anonymous_args = 0
 746              		@ link register save eliminated.
 747              	.LVL58:
 879:Generated_Source\PSoC5/UART_1.c ****         UART_1_RXADDRESS2_REG = address;
 748              		.loc 1 879 0
 749 0000 014B     		ldr	r3, .L62
 750 0002 1870     		strb	r0, [r3]
 751 0004 7047     		bx	lr
 752              	.L63:
 753 0006 00BF     		.align	2
 754              	.L62:
 755 0008 38640040 		.word	1073767480
 756              		.cfi_endproc
 757              	.LFE15:
 758              		.size	UART_1_SetRxAddress2, .-UART_1_SetRxAddress2
 759              		.section	.text.UART_1_Init,"ax",%progbits
 760              		.align	2
 761              		.global	UART_1_Init
 762              		.thumb
 763              		.thumb_func
 764              		.type	UART_1_Init, %function
 765              	UART_1_Init:
 766              	.LFB1:
 107:Generated_Source\PSoC5/UART_1.c ****     #if(UART_1_RX_ENABLED || UART_1_HD_ENABLED)
 767              		.loc 1 107 0
 768              		.cfi_startproc
 769              		@ args = 0, pretend = 0, frame = 0
 770              		@ frame_needed = 0, uses_anonymous_args = 0
 771 0000 10B5     		push	{r4, lr}
ARM GAS  C:\Users\DELL\AppData\Local\Temp\cc7AnBD9.s 			page 30


 772              		.cfi_def_cfa_offset 8
 773              		.cfi_offset 4, -8
 774              		.cfi_offset 14, -4
 112:Generated_Source\PSoC5/UART_1.c ****             CyIntSetPriority(UART_1_RX_VECT_NUM, UART_1_RX_PRIOR_NUM);
 775              		.loc 1 112 0
 776 0002 1649     		ldr	r1, .L66
 777 0004 0020     		movs	r0, #0
 778 0006 FFF7FEFF 		bl	CyIntSetVector
 779              	.LVL59:
 113:Generated_Source\PSoC5/UART_1.c ****             UART_1_errorStatus = 0u;
 780              		.loc 1 113 0
 781 000a 0721     		movs	r1, #7
 782 000c 0020     		movs	r0, #0
 783 000e FFF7FEFF 		bl	CyIntSetPriority
 784              	.LVL60:
 114:Generated_Source\PSoC5/UART_1.c ****         #endif /* (UART_1_RX_INTERRUPT_ENABLED) */
 785              		.loc 1 114 0
 786 0012 0024     		movs	r4, #0
 787 0014 124B     		ldr	r3, .L66+4
 788 0016 5C71     		strb	r4, [r3, #5]
 118:Generated_Source\PSoC5/UART_1.c ****             UART_1_SetRxAddress1(UART_1_RX_HW_ADDRESS1);
 789              		.loc 1 118 0
 790 0018 0120     		movs	r0, #1
 791 001a FFF7FEFF 		bl	UART_1_SetRxAddressMode
 792              	.LVL61:
 119:Generated_Source\PSoC5/UART_1.c ****             UART_1_SetRxAddress2(UART_1_RX_HW_ADDRESS2);
 793              		.loc 1 119 0
 794 001e 2046     		mov	r0, r4
 795 0020 FFF7FEFF 		bl	UART_1_SetRxAddress1
 796              	.LVL62:
 120:Generated_Source\PSoC5/UART_1.c ****         #endif /* End UART_1_RXHW_ADDRESS_ENABLED */
 797              		.loc 1 120 0
 798 0024 2046     		mov	r0, r4
 799 0026 FFF7FEFF 		bl	UART_1_SetRxAddress2
 800              	.LVL63:
 124:Generated_Source\PSoC5/UART_1.c ****         /* Configure the Initial RX interrupt mask */
 801              		.loc 1 124 0
 802 002a 7622     		movs	r2, #118
 803 002c 0D4B     		ldr	r3, .L66+8
 804 002e 1A70     		strb	r2, [r3]
 126:Generated_Source\PSoC5/UART_1.c ****     #endif /* End UART_1_RX_ENABLED || UART_1_HD_ENABLED*/
 805              		.loc 1 126 0
 806 0030 2022     		movs	r2, #32
 807 0032 0433     		adds	r3, r3, #4
 808 0034 1A70     		strb	r2, [r3]
 132:Generated_Source\PSoC5/UART_1.c ****             CyIntSetPriority(UART_1_TX_VECT_NUM, UART_1_TX_PRIOR_NUM);
 809              		.loc 1 132 0
 810 0036 0C49     		ldr	r1, .L66+12
 811 0038 0120     		movs	r0, #1
 812 003a FFF7FEFF 		bl	CyIntSetVector
 813              	.LVL64:
 133:Generated_Source\PSoC5/UART_1.c ****         #endif /* (UART_1_TX_INTERRUPT_ENABLED) */
 814              		.loc 1 133 0
 815 003e 0721     		movs	r1, #7
 816 0040 0120     		movs	r0, #1
 817 0042 FFF7FEFF 		bl	CyIntSetPriority
 818              	.LVL65:
ARM GAS  C:\Users\DELL\AppData\Local\Temp\cc7AnBD9.s 			page 31


 138:Generated_Source\PSoC5/UART_1.c ****             UART_1_TXBITCLKTX_COMPLETE_REG = ((UART_1_NUMBER_OF_DATA_BITS +
 819              		.loc 1 138 0
 820 0046 0E22     		movs	r2, #14
 821 0048 084B     		ldr	r3, .L66+16
 822 004a 1A70     		strb	r2, [r3]
 139:Generated_Source\PSoC5/UART_1.c ****                         UART_1_NUMBER_OF_START_BIT) * UART_1_OVER_SAMPLE_COUNT) - 1u;
 823              		.loc 1 139 0
 824 004c 8F22     		movs	r2, #143
 825 004e 1033     		adds	r3, r3, #16
 826 0050 1A70     		strb	r2, [r3]
 148:Generated_Source\PSoC5/UART_1.c ****         #else
 827              		.loc 1 148 0
 828 0052 0222     		movs	r2, #2
 829 0054 4F33     		adds	r3, r3, #79
 830 0056 1A70     		strb	r2, [r3]
 831 0058 10BD     		pop	{r4, pc}
 832              	.L67:
 833 005a 00BF     		.align	2
 834              	.L66:
 835 005c 00000000 		.word	UART_1_RXISR
 836 0060 00000000 		.word	.LANCHOR0
 837 0064 88640040 		.word	1073767560
 838 0068 00000000 		.word	UART_1_TXISR
 839 006c 2B650040 		.word	1073767723
 840              		.cfi_endproc
 841              	.LFE1:
 842              		.size	UART_1_Init, .-UART_1_Init
 843              		.section	.text.UART_1_Start,"ax",%progbits
 844              		.align	2
 845              		.global	UART_1_Start
 846              		.thumb
 847              		.thumb_func
 848              		.type	UART_1_Start, %function
 849              	UART_1_Start:
 850              	.LFB0:
  77:Generated_Source\PSoC5/UART_1.c ****     /* If not initialized then initialize all required hardware and software */
 851              		.loc 1 77 0
 852              		.cfi_startproc
 853              		@ args = 0, pretend = 0, frame = 0
 854              		@ frame_needed = 0, uses_anonymous_args = 0
 855 0000 08B5     		push	{r3, lr}
 856              		.cfi_def_cfa_offset 8
 857              		.cfi_offset 3, -8
 858              		.cfi_offset 14, -4
  79:Generated_Source\PSoC5/UART_1.c ****     {
 859              		.loc 1 79 0
 860 0002 054B     		ldr	r3, .L71
 861 0004 9B79     		ldrb	r3, [r3, #6]	@ zero_extendqisi2
 862 0006 23B9     		cbnz	r3, .L69
  81:Generated_Source\PSoC5/UART_1.c ****         UART_1_initVar = 1u;
 863              		.loc 1 81 0
 864 0008 FFF7FEFF 		bl	UART_1_Init
 865              	.LVL66:
  82:Generated_Source\PSoC5/UART_1.c ****     }
 866              		.loc 1 82 0
 867 000c 0122     		movs	r2, #1
 868 000e 024B     		ldr	r3, .L71
ARM GAS  C:\Users\DELL\AppData\Local\Temp\cc7AnBD9.s 			page 32


 869 0010 9A71     		strb	r2, [r3, #6]
 870              	.L69:
  85:Generated_Source\PSoC5/UART_1.c **** }
 871              		.loc 1 85 0
 872 0012 FFF7FEFF 		bl	UART_1_Enable
 873              	.LVL67:
 874 0016 08BD     		pop	{r3, pc}
 875              	.L72:
 876              		.align	2
 877              	.L71:
 878 0018 00000000 		.word	.LANCHOR0
 879              		.cfi_endproc
 880              	.LFE0:
 881              		.size	UART_1_Start, .-UART_1_Start
 882              		.section	.text.UART_1_SetTxInterruptMode,"ax",%progbits
 883              		.align	2
 884              		.global	UART_1_SetTxInterruptMode
 885              		.thumb
 886              		.thumb_func
 887              		.type	UART_1_SetTxInterruptMode, %function
 888              	UART_1_SetTxInterruptMode:
 889              	.LFB16:
 880:Generated_Source\PSoC5/UART_1.c ****     }
 881:Generated_Source\PSoC5/UART_1.c **** 
 882:Generated_Source\PSoC5/UART_1.c **** #endif  /* UART_1_RX_ENABLED || UART_1_HD_ENABLED*/
 883:Generated_Source\PSoC5/UART_1.c **** 
 884:Generated_Source\PSoC5/UART_1.c **** 
 885:Generated_Source\PSoC5/UART_1.c **** #if( (UART_1_TX_ENABLED) || (UART_1_HD_ENABLED) )
 886:Generated_Source\PSoC5/UART_1.c ****     /*******************************************************************************
 887:Generated_Source\PSoC5/UART_1.c ****     * Function Name: UART_1_SetTxInterruptMode
 888:Generated_Source\PSoC5/UART_1.c ****     ********************************************************************************
 889:Generated_Source\PSoC5/UART_1.c ****     *
 890:Generated_Source\PSoC5/UART_1.c ****     * Summary:
 891:Generated_Source\PSoC5/UART_1.c ****     *  Configures the TX interrupt sources to be enabled, but does not enable the
 892:Generated_Source\PSoC5/UART_1.c ****     *  interrupt.
 893:Generated_Source\PSoC5/UART_1.c ****     *
 894:Generated_Source\PSoC5/UART_1.c ****     * Parameters:
 895:Generated_Source\PSoC5/UART_1.c ****     *  intSrc: Bit field containing the TX interrupt sources to enable
 896:Generated_Source\PSoC5/UART_1.c ****     *   UART_1_TX_STS_COMPLETE        Interrupt on TX byte complete
 897:Generated_Source\PSoC5/UART_1.c ****     *   UART_1_TX_STS_FIFO_EMPTY      Interrupt when TX FIFO is empty
 898:Generated_Source\PSoC5/UART_1.c ****     *   UART_1_TX_STS_FIFO_FULL       Interrupt when TX FIFO is full
 899:Generated_Source\PSoC5/UART_1.c ****     *   UART_1_TX_STS_FIFO_NOT_FULL   Interrupt when TX FIFO is not full
 900:Generated_Source\PSoC5/UART_1.c ****     *
 901:Generated_Source\PSoC5/UART_1.c ****     * Return:
 902:Generated_Source\PSoC5/UART_1.c ****     *  None.
 903:Generated_Source\PSoC5/UART_1.c ****     *
 904:Generated_Source\PSoC5/UART_1.c ****     * Theory:
 905:Generated_Source\PSoC5/UART_1.c ****     *  Enables the output of specific status bits to the interrupt controller
 906:Generated_Source\PSoC5/UART_1.c ****     *
 907:Generated_Source\PSoC5/UART_1.c ****     *******************************************************************************/
 908:Generated_Source\PSoC5/UART_1.c ****     void UART_1_SetTxInterruptMode(uint8 intSrc) 
 909:Generated_Source\PSoC5/UART_1.c ****     {
 890              		.loc 1 909 0
 891              		.cfi_startproc
 892              		@ args = 0, pretend = 0, frame = 0
 893              		@ frame_needed = 0, uses_anonymous_args = 0
 894              		@ link register save eliminated.
ARM GAS  C:\Users\DELL\AppData\Local\Temp\cc7AnBD9.s 			page 33


 895              	.LVL68:
 910:Generated_Source\PSoC5/UART_1.c ****         UART_1_TXSTATUS_MASK_REG = intSrc;
 896              		.loc 1 910 0
 897 0000 014B     		ldr	r3, .L74
 898 0002 1870     		strb	r0, [r3]
 899 0004 7047     		bx	lr
 900              	.L75:
 901 0006 00BF     		.align	2
 902              	.L74:
 903 0008 8A650040 		.word	1073767818
 904              		.cfi_endproc
 905              	.LFE16:
 906              		.size	UART_1_SetTxInterruptMode, .-UART_1_SetTxInterruptMode
 907              		.section	.text.UART_1_WriteTxData,"ax",%progbits
 908              		.align	2
 909              		.global	UART_1_WriteTxData
 910              		.thumb
 911              		.thumb_func
 912              		.type	UART_1_WriteTxData, %function
 913              	UART_1_WriteTxData:
 914              	.LFB17:
 911:Generated_Source\PSoC5/UART_1.c ****     }
 912:Generated_Source\PSoC5/UART_1.c **** 
 913:Generated_Source\PSoC5/UART_1.c **** 
 914:Generated_Source\PSoC5/UART_1.c ****     /*******************************************************************************
 915:Generated_Source\PSoC5/UART_1.c ****     * Function Name: UART_1_WriteTxData
 916:Generated_Source\PSoC5/UART_1.c ****     ********************************************************************************
 917:Generated_Source\PSoC5/UART_1.c ****     *
 918:Generated_Source\PSoC5/UART_1.c ****     * Summary:
 919:Generated_Source\PSoC5/UART_1.c ****     *  Places a byte of data into the transmit buffer to be sent when the bus is
 920:Generated_Source\PSoC5/UART_1.c ****     *  available without checking the TX status register. You must check status
 921:Generated_Source\PSoC5/UART_1.c ****     *  separately.
 922:Generated_Source\PSoC5/UART_1.c ****     *
 923:Generated_Source\PSoC5/UART_1.c ****     * Parameters:
 924:Generated_Source\PSoC5/UART_1.c ****     *  txDataByte: data byte
 925:Generated_Source\PSoC5/UART_1.c ****     *
 926:Generated_Source\PSoC5/UART_1.c ****     * Return:
 927:Generated_Source\PSoC5/UART_1.c ****     * None.
 928:Generated_Source\PSoC5/UART_1.c ****     *
 929:Generated_Source\PSoC5/UART_1.c ****     * Global Variables:
 930:Generated_Source\PSoC5/UART_1.c ****     *  UART_1_txBuffer - RAM buffer pointer for save data for transmission
 931:Generated_Source\PSoC5/UART_1.c ****     *  UART_1_txBufferWrite - cyclic index for write to txBuffer,
 932:Generated_Source\PSoC5/UART_1.c ****     *    incremented after each byte saved to buffer.
 933:Generated_Source\PSoC5/UART_1.c ****     *  UART_1_txBufferRead - cyclic index for read from txBuffer,
 934:Generated_Source\PSoC5/UART_1.c ****     *    checked to identify the condition to write to FIFO directly or to TX buffer
 935:Generated_Source\PSoC5/UART_1.c ****     *  UART_1_initVar - checked to identify that the component has been
 936:Generated_Source\PSoC5/UART_1.c ****     *    initialized.
 937:Generated_Source\PSoC5/UART_1.c ****     *
 938:Generated_Source\PSoC5/UART_1.c ****     * Reentrant:
 939:Generated_Source\PSoC5/UART_1.c ****     *  No.
 940:Generated_Source\PSoC5/UART_1.c ****     *
 941:Generated_Source\PSoC5/UART_1.c ****     *******************************************************************************/
 942:Generated_Source\PSoC5/UART_1.c ****     void UART_1_WriteTxData(uint8 txDataByte) 
 943:Generated_Source\PSoC5/UART_1.c ****     {
 915              		.loc 1 943 0
 916              		.cfi_startproc
 917              		@ args = 0, pretend = 0, frame = 0
ARM GAS  C:\Users\DELL\AppData\Local\Temp\cc7AnBD9.s 			page 34


 918              		@ frame_needed = 0, uses_anonymous_args = 0
 919              		@ link register save eliminated.
 920              	.LVL69:
 944:Generated_Source\PSoC5/UART_1.c ****         /* If not Initialized then skip this function*/
 945:Generated_Source\PSoC5/UART_1.c ****         if(UART_1_initVar != 0u)
 921              		.loc 1 945 0
 922 0000 114B     		ldr	r3, .L81
 923 0002 9B79     		ldrb	r3, [r3, #6]	@ zero_extendqisi2
 924 0004 F3B1     		cbz	r3, .L76
 946:Generated_Source\PSoC5/UART_1.c ****         {
 947:Generated_Source\PSoC5/UART_1.c ****         #if (UART_1_TX_INTERRUPT_ENABLED)
 948:Generated_Source\PSoC5/UART_1.c **** 
 949:Generated_Source\PSoC5/UART_1.c ****             /* Protect variables that could change on interrupt. */
 950:Generated_Source\PSoC5/UART_1.c ****             UART_1_DisableTxInt();
 925              		.loc 1 950 0
 926 0006 0222     		movs	r2, #2
 927 0008 104B     		ldr	r3, .L81+4
 928 000a 1A60     		str	r2, [r3]
 951:Generated_Source\PSoC5/UART_1.c **** 
 952:Generated_Source\PSoC5/UART_1.c ****             if( (UART_1_txBufferRead == UART_1_txBufferWrite) &&
 929              		.loc 1 952 0
 930 000c 0E4A     		ldr	r2, .L81
 931 000e D379     		ldrb	r3, [r2, #7]	@ zero_extendqisi2
 932 0010 DBB2     		uxtb	r3, r3
 933 0012 127A     		ldrb	r2, [r2, #8]	@ zero_extendqisi2
 934 0014 9342     		cmp	r3, r2
 935 0016 07D1     		bne	.L78
 953:Generated_Source\PSoC5/UART_1.c ****                 ((UART_1_TXSTATUS_REG & UART_1_TX_STS_FIFO_FULL) == 0u) )
 936              		.loc 1 953 0 discriminator 1
 937 0018 0D4B     		ldr	r3, .L81+8
 938 001a 1B78     		ldrb	r3, [r3]	@ zero_extendqisi2
 952:Generated_Source\PSoC5/UART_1.c ****                 ((UART_1_TXSTATUS_REG & UART_1_TX_STS_FIFO_FULL) == 0u) )
 939              		.loc 1 952 0 discriminator 1
 940 001c 13F0040F 		tst	r3, #4
 941 0020 02D1     		bne	.L78
 954:Generated_Source\PSoC5/UART_1.c ****             {
 955:Generated_Source\PSoC5/UART_1.c ****                 /* Add directly to the FIFO. */
 956:Generated_Source\PSoC5/UART_1.c ****                 UART_1_TXDATA_REG = txDataByte;
 942              		.loc 1 956 0
 943 0022 0C4B     		ldr	r3, .L81+12
 944 0024 1870     		strb	r0, [r3]
 945 0026 0AE0     		b	.L79
 946              	.L78:
 957:Generated_Source\PSoC5/UART_1.c ****             }
 958:Generated_Source\PSoC5/UART_1.c ****             else
 959:Generated_Source\PSoC5/UART_1.c ****             {
 960:Generated_Source\PSoC5/UART_1.c ****                 if(UART_1_txBufferWrite >= UART_1_TX_BUFFER_SIZE)
 947              		.loc 1 960 0
 948 0028 072A     		cmp	r2, #7
 949 002a 02D9     		bls	.L80
 961:Generated_Source\PSoC5/UART_1.c ****                 {
 962:Generated_Source\PSoC5/UART_1.c ****                     UART_1_txBufferWrite = 0u;
 950              		.loc 1 962 0
 951 002c 0022     		movs	r2, #0
 952 002e 064B     		ldr	r3, .L81
 953 0030 1A72     		strb	r2, [r3, #8]
 954              	.L80:
ARM GAS  C:\Users\DELL\AppData\Local\Temp\cc7AnBD9.s 			page 35


 963:Generated_Source\PSoC5/UART_1.c ****                 }
 964:Generated_Source\PSoC5/UART_1.c **** 
 965:Generated_Source\PSoC5/UART_1.c ****                 UART_1_txBuffer[UART_1_txBufferWrite] = txDataByte;
 955              		.loc 1 965 0
 956 0032 054A     		ldr	r2, .L81
 957 0034 137A     		ldrb	r3, [r2, #8]	@ zero_extendqisi2
 958 0036 0849     		ldr	r1, .L81+16
 959 0038 C854     		strb	r0, [r1, r3]
 966:Generated_Source\PSoC5/UART_1.c **** 
 967:Generated_Source\PSoC5/UART_1.c ****                 /* Add to the software buffer. */
 968:Generated_Source\PSoC5/UART_1.c ****                 UART_1_txBufferWrite++;
 960              		.loc 1 968 0
 961 003a 0133     		adds	r3, r3, #1
 962 003c 1372     		strb	r3, [r2, #8]
 963              	.L79:
 969:Generated_Source\PSoC5/UART_1.c ****             }
 970:Generated_Source\PSoC5/UART_1.c **** 
 971:Generated_Source\PSoC5/UART_1.c ****             UART_1_EnableTxInt();
 964              		.loc 1 971 0
 965 003e 0222     		movs	r2, #2
 966 0040 064B     		ldr	r3, .L81+20
 967 0042 1A60     		str	r2, [r3]
 968              	.L76:
 969 0044 7047     		bx	lr
 970              	.L82:
 971 0046 00BF     		.align	2
 972              	.L81:
 973 0048 00000000 		.word	.LANCHOR0
 974 004c 80E100E0 		.word	-536813184
 975 0050 6A650040 		.word	1073767786
 976 0054 4A650040 		.word	1073767754
 977 0058 00000000 		.word	UART_1_txBuffer
 978 005c 00E100E0 		.word	-536813312
 979              		.cfi_endproc
 980              	.LFE17:
 981              		.size	UART_1_WriteTxData, .-UART_1_WriteTxData
 982              		.section	.text.UART_1_ReadTxStatus,"ax",%progbits
 983              		.align	2
 984              		.global	UART_1_ReadTxStatus
 985              		.thumb
 986              		.thumb_func
 987              		.type	UART_1_ReadTxStatus, %function
 988              	UART_1_ReadTxStatus:
 989              	.LFB18:
 972:Generated_Source\PSoC5/UART_1.c **** 
 973:Generated_Source\PSoC5/UART_1.c ****         #else
 974:Generated_Source\PSoC5/UART_1.c **** 
 975:Generated_Source\PSoC5/UART_1.c ****             /* Add directly to the FIFO. */
 976:Generated_Source\PSoC5/UART_1.c ****             UART_1_TXDATA_REG = txDataByte;
 977:Generated_Source\PSoC5/UART_1.c **** 
 978:Generated_Source\PSoC5/UART_1.c ****         #endif /*(UART_1_TX_INTERRUPT_ENABLED) */
 979:Generated_Source\PSoC5/UART_1.c ****         }
 980:Generated_Source\PSoC5/UART_1.c ****     }
 981:Generated_Source\PSoC5/UART_1.c **** 
 982:Generated_Source\PSoC5/UART_1.c **** 
 983:Generated_Source\PSoC5/UART_1.c ****     /*******************************************************************************
 984:Generated_Source\PSoC5/UART_1.c ****     * Function Name: UART_1_ReadTxStatus
ARM GAS  C:\Users\DELL\AppData\Local\Temp\cc7AnBD9.s 			page 36


 985:Generated_Source\PSoC5/UART_1.c ****     ********************************************************************************
 986:Generated_Source\PSoC5/UART_1.c ****     *
 987:Generated_Source\PSoC5/UART_1.c ****     * Summary:
 988:Generated_Source\PSoC5/UART_1.c ****     *  Reads the status register for the TX portion of the UART.
 989:Generated_Source\PSoC5/UART_1.c ****     *
 990:Generated_Source\PSoC5/UART_1.c ****     * Parameters:
 991:Generated_Source\PSoC5/UART_1.c ****     *  None.
 992:Generated_Source\PSoC5/UART_1.c ****     *
 993:Generated_Source\PSoC5/UART_1.c ****     * Return:
 994:Generated_Source\PSoC5/UART_1.c ****     *  Contents of the status register
 995:Generated_Source\PSoC5/UART_1.c ****     *
 996:Generated_Source\PSoC5/UART_1.c ****     * Theory:
 997:Generated_Source\PSoC5/UART_1.c ****     *  This function reads the TX status register, which is cleared on read.
 998:Generated_Source\PSoC5/UART_1.c ****     *  It is up to the user to handle all bits in this return value accordingly,
 999:Generated_Source\PSoC5/UART_1.c ****     *  even if the bit was not enabled as an interrupt source the event happened
1000:Generated_Source\PSoC5/UART_1.c ****     *  and must be handled accordingly.
1001:Generated_Source\PSoC5/UART_1.c ****     *
1002:Generated_Source\PSoC5/UART_1.c ****     *******************************************************************************/
1003:Generated_Source\PSoC5/UART_1.c ****     uint8 UART_1_ReadTxStatus(void) 
1004:Generated_Source\PSoC5/UART_1.c ****     {
 990              		.loc 1 1004 0
 991              		.cfi_startproc
 992              		@ args = 0, pretend = 0, frame = 0
 993              		@ frame_needed = 0, uses_anonymous_args = 0
 994              		@ link register save eliminated.
1005:Generated_Source\PSoC5/UART_1.c ****         return(UART_1_TXSTATUS_REG);
 995              		.loc 1 1005 0
 996 0000 014B     		ldr	r3, .L84
 997 0002 1878     		ldrb	r0, [r3]	@ zero_extendqisi2
1006:Generated_Source\PSoC5/UART_1.c ****     }
 998              		.loc 1 1006 0
 999 0004 7047     		bx	lr
 1000              	.L85:
 1001 0006 00BF     		.align	2
 1002              	.L84:
 1003 0008 6A650040 		.word	1073767786
 1004              		.cfi_endproc
 1005              	.LFE18:
 1006              		.size	UART_1_ReadTxStatus, .-UART_1_ReadTxStatus
 1007              		.section	.text.UART_1_PutChar,"ax",%progbits
 1008              		.align	2
 1009              		.global	UART_1_PutChar
 1010              		.thumb
 1011              		.thumb_func
 1012              		.type	UART_1_PutChar, %function
 1013              	UART_1_PutChar:
 1014              	.LFB19:
1007:Generated_Source\PSoC5/UART_1.c **** 
1008:Generated_Source\PSoC5/UART_1.c **** 
1009:Generated_Source\PSoC5/UART_1.c ****     /*******************************************************************************
1010:Generated_Source\PSoC5/UART_1.c ****     * Function Name: UART_1_PutChar
1011:Generated_Source\PSoC5/UART_1.c ****     ********************************************************************************
1012:Generated_Source\PSoC5/UART_1.c ****     *
1013:Generated_Source\PSoC5/UART_1.c ****     * Summary:
1014:Generated_Source\PSoC5/UART_1.c ****     *  Puts a byte of data into the transmit buffer to be sent when the bus is
1015:Generated_Source\PSoC5/UART_1.c ****     *  available. This is a blocking API that waits until the TX buffer has room to
1016:Generated_Source\PSoC5/UART_1.c ****     *  hold the data.
ARM GAS  C:\Users\DELL\AppData\Local\Temp\cc7AnBD9.s 			page 37


1017:Generated_Source\PSoC5/UART_1.c ****     *
1018:Generated_Source\PSoC5/UART_1.c ****     * Parameters:
1019:Generated_Source\PSoC5/UART_1.c ****     *  txDataByte: Byte containing the data to transmit
1020:Generated_Source\PSoC5/UART_1.c ****     *
1021:Generated_Source\PSoC5/UART_1.c ****     * Return:
1022:Generated_Source\PSoC5/UART_1.c ****     *  None.
1023:Generated_Source\PSoC5/UART_1.c ****     *
1024:Generated_Source\PSoC5/UART_1.c ****     * Global Variables:
1025:Generated_Source\PSoC5/UART_1.c ****     *  UART_1_txBuffer - RAM buffer pointer for save data for transmission
1026:Generated_Source\PSoC5/UART_1.c ****     *  UART_1_txBufferWrite - cyclic index for write to txBuffer,
1027:Generated_Source\PSoC5/UART_1.c ****     *     checked to identify free space in txBuffer and incremented after each byte
1028:Generated_Source\PSoC5/UART_1.c ****     *     saved to buffer.
1029:Generated_Source\PSoC5/UART_1.c ****     *  UART_1_txBufferRead - cyclic index for read from txBuffer,
1030:Generated_Source\PSoC5/UART_1.c ****     *     checked to identify free space in txBuffer.
1031:Generated_Source\PSoC5/UART_1.c ****     *  UART_1_initVar - checked to identify that the component has been
1032:Generated_Source\PSoC5/UART_1.c ****     *     initialized.
1033:Generated_Source\PSoC5/UART_1.c ****     *
1034:Generated_Source\PSoC5/UART_1.c ****     * Reentrant:
1035:Generated_Source\PSoC5/UART_1.c ****     *  No.
1036:Generated_Source\PSoC5/UART_1.c ****     *
1037:Generated_Source\PSoC5/UART_1.c ****     * Theory:
1038:Generated_Source\PSoC5/UART_1.c ****     *  Allows the user to transmit any byte of data in a single transfer
1039:Generated_Source\PSoC5/UART_1.c ****     *
1040:Generated_Source\PSoC5/UART_1.c ****     *******************************************************************************/
1041:Generated_Source\PSoC5/UART_1.c ****     void UART_1_PutChar(uint8 txDataByte) 
1042:Generated_Source\PSoC5/UART_1.c ****     {
 1015              		.loc 1 1042 0
 1016              		.cfi_startproc
 1017              		@ args = 0, pretend = 0, frame = 0
 1018              		@ frame_needed = 0, uses_anonymous_args = 0
 1019              		@ link register save eliminated.
 1020              	.LVL70:
 1021              	.L89:
1043:Generated_Source\PSoC5/UART_1.c ****     #if (UART_1_TX_INTERRUPT_ENABLED)
1044:Generated_Source\PSoC5/UART_1.c ****         /* The temporary output pointer is used since it takes two instructions
1045:Generated_Source\PSoC5/UART_1.c ****         *  to increment with a wrap, and we can't risk doing that with the real
1046:Generated_Source\PSoC5/UART_1.c ****         *  pointer and getting an interrupt in between instructions.
1047:Generated_Source\PSoC5/UART_1.c ****         */
1048:Generated_Source\PSoC5/UART_1.c ****         uint8 locTxBufferWrite;
1049:Generated_Source\PSoC5/UART_1.c ****         uint8 locTxBufferRead;
1050:Generated_Source\PSoC5/UART_1.c **** 
1051:Generated_Source\PSoC5/UART_1.c ****         do
1052:Generated_Source\PSoC5/UART_1.c ****         { /* Block if software buffer is full, so we don't overwrite. */
1053:Generated_Source\PSoC5/UART_1.c **** 
1054:Generated_Source\PSoC5/UART_1.c ****         #if ((UART_1_TX_BUFFER_SIZE > UART_1_MAX_BYTE_VALUE) && (CY_PSOC3))
1055:Generated_Source\PSoC5/UART_1.c ****             /* Disable TX interrupt to protect variables from modification */
1056:Generated_Source\PSoC5/UART_1.c ****             UART_1_DisableTxInt();
1057:Generated_Source\PSoC5/UART_1.c ****         #endif /* (UART_1_TX_BUFFER_SIZE > UART_1_MAX_BYTE_VALUE) && (CY_PSOC3) */
1058:Generated_Source\PSoC5/UART_1.c **** 
1059:Generated_Source\PSoC5/UART_1.c ****             locTxBufferWrite = UART_1_txBufferWrite;
 1022              		.loc 1 1059 0
 1023 0000 164B     		ldr	r3, .L94
 1024 0002 197A     		ldrb	r1, [r3, #8]	@ zero_extendqisi2
 1025              	.LVL71:
1060:Generated_Source\PSoC5/UART_1.c ****             locTxBufferRead  = UART_1_txBufferRead;
 1026              		.loc 1 1060 0
 1027 0004 DB79     		ldrb	r3, [r3, #7]	@ zero_extendqisi2
ARM GAS  C:\Users\DELL\AppData\Local\Temp\cc7AnBD9.s 			page 38


 1028 0006 DBB2     		uxtb	r3, r3
 1029              	.LVL72:
1061:Generated_Source\PSoC5/UART_1.c **** 
1062:Generated_Source\PSoC5/UART_1.c ****         #if ((UART_1_TX_BUFFER_SIZE > UART_1_MAX_BYTE_VALUE) && (CY_PSOC3))
1063:Generated_Source\PSoC5/UART_1.c ****             /* Enable interrupt to continue transmission */
1064:Generated_Source\PSoC5/UART_1.c ****             UART_1_EnableTxInt();
1065:Generated_Source\PSoC5/UART_1.c ****         #endif /* (UART_1_TX_BUFFER_SIZE > UART_1_MAX_BYTE_VALUE) && (CY_PSOC3) */
1066:Generated_Source\PSoC5/UART_1.c ****         }
1067:Generated_Source\PSoC5/UART_1.c ****         while( (locTxBufferWrite < locTxBufferRead) ? (locTxBufferWrite == (locTxBufferRead - 1u)) 
 1030              		.loc 1 1067 0
 1031 0008 9942     		cmp	r1, r3
 1032 000a 05D2     		bcs	.L87
 1033              		.loc 1 1067 0 is_stmt 0 discriminator 1
 1034 000c 5A1E     		subs	r2, r3, #1
 1035 000e 9142     		cmp	r1, r2
 1036 0010 14BF     		ite	ne
 1037 0012 0022     		movne	r2, #0
 1038 0014 0122     		moveq	r2, #1
 1039 0016 04E0     		b	.L88
 1040              	.L87:
1068:Generated_Source\PSoC5/UART_1.c ****                                 ((locTxBufferWrite - locTxBufferRead) ==
 1041              		.loc 1 1068 0 is_stmt 1 discriminator 2
 1042 0018 CA1A     		subs	r2, r1, r3
1067:Generated_Source\PSoC5/UART_1.c ****                                 ((locTxBufferWrite - locTxBufferRead) ==
 1043              		.loc 1 1067 0 discriminator 2
 1044 001a 072A     		cmp	r2, #7
 1045 001c 14BF     		ite	ne
 1046 001e 0022     		movne	r2, #0
 1047 0020 0122     		moveq	r2, #1
 1048              	.L88:
1069:Generated_Source\PSoC5/UART_1.c ****                                 (uint8)(UART_1_TX_BUFFER_SIZE - 1u)) );
 1049              		.loc 1 1069 0
 1050 0022 002A     		cmp	r2, #0
 1051 0024 ECD1     		bne	.L89
1070:Generated_Source\PSoC5/UART_1.c **** 
1071:Generated_Source\PSoC5/UART_1.c ****         if( (locTxBufferRead == locTxBufferWrite) &&
 1052              		.loc 1 1071 0
 1053 0026 9942     		cmp	r1, r3
 1054 0028 07D1     		bne	.L90
1072:Generated_Source\PSoC5/UART_1.c ****             ((UART_1_TXSTATUS_REG & UART_1_TX_STS_FIFO_FULL) == 0u) )
 1055              		.loc 1 1072 0 discriminator 1
 1056 002a 0D4B     		ldr	r3, .L94+4
 1057              	.LVL73:
 1058 002c 1B78     		ldrb	r3, [r3]	@ zero_extendqisi2
1071:Generated_Source\PSoC5/UART_1.c ****             ((UART_1_TXSTATUS_REG & UART_1_TX_STS_FIFO_FULL) == 0u) )
 1059              		.loc 1 1071 0 discriminator 1
 1060 002e 13F0040F 		tst	r3, #4
 1061 0032 02D1     		bne	.L90
1073:Generated_Source\PSoC5/UART_1.c ****         {
1074:Generated_Source\PSoC5/UART_1.c ****             /* Add directly to the FIFO */
1075:Generated_Source\PSoC5/UART_1.c ****             UART_1_TXDATA_REG = txDataByte;
 1062              		.loc 1 1075 0
 1063 0034 0B4B     		ldr	r3, .L94+8
 1064 0036 1870     		strb	r0, [r3]
 1065 0038 7047     		bx	lr
 1066              	.L90:
1076:Generated_Source\PSoC5/UART_1.c ****         }
ARM GAS  C:\Users\DELL\AppData\Local\Temp\cc7AnBD9.s 			page 39


1077:Generated_Source\PSoC5/UART_1.c ****         else
1078:Generated_Source\PSoC5/UART_1.c ****         {
1079:Generated_Source\PSoC5/UART_1.c ****             if(locTxBufferWrite >= UART_1_TX_BUFFER_SIZE)
 1067              		.loc 1 1079 0
 1068 003a 0729     		cmp	r1, #7
 1069 003c 00D9     		bls	.L92
1080:Generated_Source\PSoC5/UART_1.c ****             {
1081:Generated_Source\PSoC5/UART_1.c ****                 locTxBufferWrite = 0u;
 1070              		.loc 1 1081 0
 1071 003e 0021     		movs	r1, #0
 1072              	.LVL74:
 1073              	.L92:
1082:Generated_Source\PSoC5/UART_1.c ****             }
1083:Generated_Source\PSoC5/UART_1.c ****             /* Add to the software buffer. */
1084:Generated_Source\PSoC5/UART_1.c ****             UART_1_txBuffer[locTxBufferWrite] = txDataByte;
 1074              		.loc 1 1084 0
 1075 0040 094B     		ldr	r3, .L94+12
 1076 0042 5854     		strb	r0, [r3, r1]
1085:Generated_Source\PSoC5/UART_1.c ****             locTxBufferWrite++;
 1077              		.loc 1 1085 0
 1078 0044 0131     		adds	r1, r1, #1
 1079              	.LVL75:
1086:Generated_Source\PSoC5/UART_1.c **** 
1087:Generated_Source\PSoC5/UART_1.c ****             /* Finally, update the real output pointer */
1088:Generated_Source\PSoC5/UART_1.c ****         #if ((UART_1_TX_BUFFER_SIZE > UART_1_MAX_BYTE_VALUE) && (CY_PSOC3))
1089:Generated_Source\PSoC5/UART_1.c ****             UART_1_DisableTxInt();
1090:Generated_Source\PSoC5/UART_1.c ****         #endif /* (UART_1_TX_BUFFER_SIZE > UART_1_MAX_BYTE_VALUE) && (CY_PSOC3) */
1091:Generated_Source\PSoC5/UART_1.c **** 
1092:Generated_Source\PSoC5/UART_1.c ****             UART_1_txBufferWrite = locTxBufferWrite;
 1080              		.loc 1 1092 0
 1081 0046 054B     		ldr	r3, .L94
 1082 0048 1972     		strb	r1, [r3, #8]
1093:Generated_Source\PSoC5/UART_1.c **** 
1094:Generated_Source\PSoC5/UART_1.c ****         #if ((UART_1_TX_BUFFER_SIZE > UART_1_MAX_BYTE_VALUE) && (CY_PSOC3))
1095:Generated_Source\PSoC5/UART_1.c ****             UART_1_EnableTxInt();
1096:Generated_Source\PSoC5/UART_1.c ****         #endif /* (UART_1_TX_BUFFER_SIZE > UART_1_MAX_BYTE_VALUE) && (CY_PSOC3) */
1097:Generated_Source\PSoC5/UART_1.c **** 
1098:Generated_Source\PSoC5/UART_1.c ****             if(0u != (UART_1_TXSTATUS_REG & UART_1_TX_STS_FIFO_EMPTY))
 1083              		.loc 1 1098 0
 1084 004a 054B     		ldr	r3, .L94+4
 1085 004c 1B78     		ldrb	r3, [r3]	@ zero_extendqisi2
 1086 004e 13F0020F 		tst	r3, #2
 1087 0052 02D0     		beq	.L86
1099:Generated_Source\PSoC5/UART_1.c ****             {
1100:Generated_Source\PSoC5/UART_1.c ****                 /* Trigger TX interrupt to send software buffer */
1101:Generated_Source\PSoC5/UART_1.c ****                 UART_1_SetPendingTxInt();
 1088              		.loc 1 1101 0
 1089 0054 0222     		movs	r2, #2
 1090 0056 054B     		ldr	r3, .L94+16
 1091 0058 1A60     		str	r2, [r3]
 1092              	.L86:
 1093 005a 7047     		bx	lr
 1094              	.L95:
 1095              		.align	2
 1096              	.L94:
 1097 005c 00000000 		.word	.LANCHOR0
 1098 0060 6A650040 		.word	1073767786
ARM GAS  C:\Users\DELL\AppData\Local\Temp\cc7AnBD9.s 			page 40


 1099 0064 4A650040 		.word	1073767754
 1100 0068 00000000 		.word	UART_1_txBuffer
 1101 006c 00E200E0 		.word	-536813056
 1102              		.cfi_endproc
 1103              	.LFE19:
 1104              		.size	UART_1_PutChar, .-UART_1_PutChar
 1105              		.section	.text.UART_1_PutString,"ax",%progbits
 1106              		.align	2
 1107              		.global	UART_1_PutString
 1108              		.thumb
 1109              		.thumb_func
 1110              		.type	UART_1_PutString, %function
 1111              	UART_1_PutString:
 1112              	.LFB20:
1102:Generated_Source\PSoC5/UART_1.c ****             }
1103:Generated_Source\PSoC5/UART_1.c ****         }
1104:Generated_Source\PSoC5/UART_1.c **** 
1105:Generated_Source\PSoC5/UART_1.c ****     #else
1106:Generated_Source\PSoC5/UART_1.c **** 
1107:Generated_Source\PSoC5/UART_1.c ****         while((UART_1_TXSTATUS_REG & UART_1_TX_STS_FIFO_FULL) != 0u)
1108:Generated_Source\PSoC5/UART_1.c ****         {
1109:Generated_Source\PSoC5/UART_1.c ****             /* Wait for room in the FIFO */
1110:Generated_Source\PSoC5/UART_1.c ****         }
1111:Generated_Source\PSoC5/UART_1.c **** 
1112:Generated_Source\PSoC5/UART_1.c ****         /* Add directly to the FIFO */
1113:Generated_Source\PSoC5/UART_1.c ****         UART_1_TXDATA_REG = txDataByte;
1114:Generated_Source\PSoC5/UART_1.c **** 
1115:Generated_Source\PSoC5/UART_1.c ****     #endif /* UART_1_TX_INTERRUPT_ENABLED */
1116:Generated_Source\PSoC5/UART_1.c ****     }
1117:Generated_Source\PSoC5/UART_1.c **** 
1118:Generated_Source\PSoC5/UART_1.c **** 
1119:Generated_Source\PSoC5/UART_1.c ****     /*******************************************************************************
1120:Generated_Source\PSoC5/UART_1.c ****     * Function Name: UART_1_PutString
1121:Generated_Source\PSoC5/UART_1.c ****     ********************************************************************************
1122:Generated_Source\PSoC5/UART_1.c ****     *
1123:Generated_Source\PSoC5/UART_1.c ****     * Summary:
1124:Generated_Source\PSoC5/UART_1.c ****     *  Sends a NULL terminated string to the TX buffer for transmission.
1125:Generated_Source\PSoC5/UART_1.c ****     *
1126:Generated_Source\PSoC5/UART_1.c ****     * Parameters:
1127:Generated_Source\PSoC5/UART_1.c ****     *  string[]: Pointer to the null terminated string array residing in RAM or ROM
1128:Generated_Source\PSoC5/UART_1.c ****     *
1129:Generated_Source\PSoC5/UART_1.c ****     * Return:
1130:Generated_Source\PSoC5/UART_1.c ****     *  None.
1131:Generated_Source\PSoC5/UART_1.c ****     *
1132:Generated_Source\PSoC5/UART_1.c ****     * Global Variables:
1133:Generated_Source\PSoC5/UART_1.c ****     *  UART_1_initVar - checked to identify that the component has been
1134:Generated_Source\PSoC5/UART_1.c ****     *     initialized.
1135:Generated_Source\PSoC5/UART_1.c ****     *
1136:Generated_Source\PSoC5/UART_1.c ****     * Reentrant:
1137:Generated_Source\PSoC5/UART_1.c ****     *  No.
1138:Generated_Source\PSoC5/UART_1.c ****     *
1139:Generated_Source\PSoC5/UART_1.c ****     * Theory:
1140:Generated_Source\PSoC5/UART_1.c ****     *  If there is not enough memory in the TX buffer for the entire string, this
1141:Generated_Source\PSoC5/UART_1.c ****     *  function blocks until the last character of the string is loaded into the
1142:Generated_Source\PSoC5/UART_1.c ****     *  TX buffer.
1143:Generated_Source\PSoC5/UART_1.c ****     *
1144:Generated_Source\PSoC5/UART_1.c ****     *******************************************************************************/
ARM GAS  C:\Users\DELL\AppData\Local\Temp\cc7AnBD9.s 			page 41


1145:Generated_Source\PSoC5/UART_1.c ****     void UART_1_PutString(const char8 string[]) 
1146:Generated_Source\PSoC5/UART_1.c ****     {
 1113              		.loc 1 1146 0
 1114              		.cfi_startproc
 1115              		@ args = 0, pretend = 0, frame = 0
 1116              		@ frame_needed = 0, uses_anonymous_args = 0
 1117              	.LVL76:
 1118 0000 38B5     		push	{r3, r4, r5, lr}
 1119              		.cfi_def_cfa_offset 16
 1120              		.cfi_offset 3, -16
 1121              		.cfi_offset 4, -12
 1122              		.cfi_offset 5, -8
 1123              		.cfi_offset 14, -4
 1124              	.LVL77:
1147:Generated_Source\PSoC5/UART_1.c ****         uint16 bufIndex = 0u;
1148:Generated_Source\PSoC5/UART_1.c **** 
1149:Generated_Source\PSoC5/UART_1.c ****         /* If not Initialized then skip this function */
1150:Generated_Source\PSoC5/UART_1.c ****         if(UART_1_initVar != 0u)
 1125              		.loc 1 1150 0
 1126 0002 074B     		ldr	r3, .L102
 1127 0004 9B79     		ldrb	r3, [r3, #6]	@ zero_extendqisi2
 1128 0006 2BB9     		cbnz	r3, .L100
 1129 0008 38BD     		pop	{r3, r4, r5, pc}
 1130              	.LVL78:
 1131              	.L99:
1151:Generated_Source\PSoC5/UART_1.c ****         {
1152:Generated_Source\PSoC5/UART_1.c ****             /* This is a blocking function, it will not exit until all data is sent */
1153:Generated_Source\PSoC5/UART_1.c ****             while(string[bufIndex] != (char8) 0)
1154:Generated_Source\PSoC5/UART_1.c ****             {
1155:Generated_Source\PSoC5/UART_1.c ****                 UART_1_PutChar((uint8)string[bufIndex]);
 1132              		.loc 1 1155 0
 1133 000a FFF7FEFF 		bl	UART_1_PutChar
 1134              	.LVL79:
1156:Generated_Source\PSoC5/UART_1.c ****                 bufIndex++;
 1135              		.loc 1 1156 0
 1136 000e 0134     		adds	r4, r4, #1
 1137              	.LVL80:
 1138 0010 A4B2     		uxth	r4, r4
 1139              	.LVL81:
 1140 0012 01E0     		b	.L97
 1141              	.LVL82:
 1142              	.L100:
 1143 0014 0546     		mov	r5, r0
 1144 0016 0024     		movs	r4, #0
 1145              	.LVL83:
 1146              	.L97:
1153:Generated_Source\PSoC5/UART_1.c ****             {
 1147              		.loc 1 1153 0
 1148 0018 285D     		ldrb	r0, [r5, r4]	@ zero_extendqisi2
 1149 001a 0028     		cmp	r0, #0
 1150 001c F5D1     		bne	.L99
 1151 001e 38BD     		pop	{r3, r4, r5, pc}
 1152              	.LVL84:
 1153              	.L103:
 1154              		.align	2
 1155              	.L102:
 1156 0020 00000000 		.word	.LANCHOR0
ARM GAS  C:\Users\DELL\AppData\Local\Temp\cc7AnBD9.s 			page 42


 1157              		.cfi_endproc
 1158              	.LFE20:
 1159              		.size	UART_1_PutString, .-UART_1_PutString
 1160              		.section	.text.UART_1_PutArray,"ax",%progbits
 1161              		.align	2
 1162              		.global	UART_1_PutArray
 1163              		.thumb
 1164              		.thumb_func
 1165              		.type	UART_1_PutArray, %function
 1166              	UART_1_PutArray:
 1167              	.LFB21:
1157:Generated_Source\PSoC5/UART_1.c ****             }
1158:Generated_Source\PSoC5/UART_1.c ****         }
1159:Generated_Source\PSoC5/UART_1.c ****     }
1160:Generated_Source\PSoC5/UART_1.c **** 
1161:Generated_Source\PSoC5/UART_1.c **** 
1162:Generated_Source\PSoC5/UART_1.c ****     /*******************************************************************************
1163:Generated_Source\PSoC5/UART_1.c ****     * Function Name: UART_1_PutArray
1164:Generated_Source\PSoC5/UART_1.c ****     ********************************************************************************
1165:Generated_Source\PSoC5/UART_1.c ****     *
1166:Generated_Source\PSoC5/UART_1.c ****     * Summary:
1167:Generated_Source\PSoC5/UART_1.c ****     *  Places N bytes of data from a memory array into the TX buffer for
1168:Generated_Source\PSoC5/UART_1.c ****     *  transmission.
1169:Generated_Source\PSoC5/UART_1.c ****     *
1170:Generated_Source\PSoC5/UART_1.c ****     * Parameters:
1171:Generated_Source\PSoC5/UART_1.c ****     *  string[]: Address of the memory array residing in RAM or ROM.
1172:Generated_Source\PSoC5/UART_1.c ****     *  byteCount: Number of bytes to be transmitted. The type depends on TX Buffer
1173:Generated_Source\PSoC5/UART_1.c ****     *             Size parameter.
1174:Generated_Source\PSoC5/UART_1.c ****     *
1175:Generated_Source\PSoC5/UART_1.c ****     * Return:
1176:Generated_Source\PSoC5/UART_1.c ****     *  None.
1177:Generated_Source\PSoC5/UART_1.c ****     *
1178:Generated_Source\PSoC5/UART_1.c ****     * Global Variables:
1179:Generated_Source\PSoC5/UART_1.c ****     *  UART_1_initVar - checked to identify that the component has been
1180:Generated_Source\PSoC5/UART_1.c ****     *     initialized.
1181:Generated_Source\PSoC5/UART_1.c ****     *
1182:Generated_Source\PSoC5/UART_1.c ****     * Reentrant:
1183:Generated_Source\PSoC5/UART_1.c ****     *  No.
1184:Generated_Source\PSoC5/UART_1.c ****     *
1185:Generated_Source\PSoC5/UART_1.c ****     * Theory:
1186:Generated_Source\PSoC5/UART_1.c ****     *  If there is not enough memory in the TX buffer for the entire string, this
1187:Generated_Source\PSoC5/UART_1.c ****     *  function blocks until the last character of the string is loaded into the
1188:Generated_Source\PSoC5/UART_1.c ****     *  TX buffer.
1189:Generated_Source\PSoC5/UART_1.c ****     *
1190:Generated_Source\PSoC5/UART_1.c ****     *******************************************************************************/
1191:Generated_Source\PSoC5/UART_1.c ****     void UART_1_PutArray(const uint8 string[], uint8 byteCount)
1192:Generated_Source\PSoC5/UART_1.c ****                                                                     
1193:Generated_Source\PSoC5/UART_1.c ****     {
 1168              		.loc 1 1193 0
 1169              		.cfi_startproc
 1170              		@ args = 0, pretend = 0, frame = 0
 1171              		@ frame_needed = 0, uses_anonymous_args = 0
 1172              	.LVL85:
1194:Generated_Source\PSoC5/UART_1.c ****         uint8 bufIndex = 0u;
1195:Generated_Source\PSoC5/UART_1.c **** 
1196:Generated_Source\PSoC5/UART_1.c ****         /* If not Initialized then skip this function */
1197:Generated_Source\PSoC5/UART_1.c ****         if(UART_1_initVar != 0u)
ARM GAS  C:\Users\DELL\AppData\Local\Temp\cc7AnBD9.s 			page 43


 1173              		.loc 1 1197 0
 1174 0000 084B     		ldr	r3, .L110
 1175 0002 9B79     		ldrb	r3, [r3, #6]	@ zero_extendqisi2
 1176 0004 33B9     		cbnz	r3, .L108
 1177 0006 7047     		bx	lr
 1178              	.LVL86:
 1179              	.L107:
 1180              		.cfi_def_cfa_offset 16
 1181              		.cfi_offset 4, -16
 1182              		.cfi_offset 5, -12
 1183              		.cfi_offset 6, -8
 1184              		.cfi_offset 14, -4
1198:Generated_Source\PSoC5/UART_1.c ****         {
1199:Generated_Source\PSoC5/UART_1.c ****             while(bufIndex < byteCount)
1200:Generated_Source\PSoC5/UART_1.c ****             {
1201:Generated_Source\PSoC5/UART_1.c ****                 UART_1_PutChar(string[bufIndex]);
 1185              		.loc 1 1201 0
 1186 0008 305D     		ldrb	r0, [r6, r4]	@ zero_extendqisi2
 1187 000a FFF7FEFF 		bl	UART_1_PutChar
 1188              	.LVL87:
1202:Generated_Source\PSoC5/UART_1.c ****                 bufIndex++;
 1189              		.loc 1 1202 0
 1190 000e 0134     		adds	r4, r4, #1
 1191              	.LVL88:
 1192 0010 E4B2     		uxtb	r4, r4
 1193              	.LVL89:
 1194 0012 03E0     		b	.L105
 1195              	.LVL90:
 1196              	.L108:
 1197              		.cfi_def_cfa_offset 0
 1198              		.cfi_restore 4
 1199              		.cfi_restore 5
 1200              		.cfi_restore 6
 1201              		.cfi_restore 14
1193:Generated_Source\PSoC5/UART_1.c ****         uint8 bufIndex = 0u;
 1202              		.loc 1 1193 0
 1203 0014 70B5     		push	{r4, r5, r6, lr}
 1204              		.cfi_def_cfa_offset 16
 1205              		.cfi_offset 4, -16
 1206              		.cfi_offset 5, -12
 1207              		.cfi_offset 6, -8
 1208              		.cfi_offset 14, -4
 1209 0016 0D46     		mov	r5, r1
 1210 0018 0646     		mov	r6, r0
 1211 001a 0024     		movs	r4, #0
 1212              	.LVL91:
 1213              	.L105:
1199:Generated_Source\PSoC5/UART_1.c ****             {
 1214              		.loc 1 1199 0
 1215 001c AC42     		cmp	r4, r5
 1216 001e F3D3     		bcc	.L107
 1217 0020 70BD     		pop	{r4, r5, r6, pc}
 1218              	.LVL92:
 1219              	.L111:
 1220 0022 00BF     		.align	2
 1221              	.L110:
 1222 0024 00000000 		.word	.LANCHOR0
ARM GAS  C:\Users\DELL\AppData\Local\Temp\cc7AnBD9.s 			page 44


 1223              		.cfi_endproc
 1224              	.LFE21:
 1225              		.size	UART_1_PutArray, .-UART_1_PutArray
 1226              		.section	.text.UART_1_PutCRLF,"ax",%progbits
 1227              		.align	2
 1228              		.global	UART_1_PutCRLF
 1229              		.thumb
 1230              		.thumb_func
 1231              		.type	UART_1_PutCRLF, %function
 1232              	UART_1_PutCRLF:
 1233              	.LFB22:
1203:Generated_Source\PSoC5/UART_1.c ****             }
1204:Generated_Source\PSoC5/UART_1.c ****         }
1205:Generated_Source\PSoC5/UART_1.c ****     }
1206:Generated_Source\PSoC5/UART_1.c **** 
1207:Generated_Source\PSoC5/UART_1.c **** 
1208:Generated_Source\PSoC5/UART_1.c ****     /*******************************************************************************
1209:Generated_Source\PSoC5/UART_1.c ****     * Function Name: UART_1_PutCRLF
1210:Generated_Source\PSoC5/UART_1.c ****     ********************************************************************************
1211:Generated_Source\PSoC5/UART_1.c ****     *
1212:Generated_Source\PSoC5/UART_1.c ****     * Summary:
1213:Generated_Source\PSoC5/UART_1.c ****     *  Writes a byte of data followed by a carriage return (0x0D) and line feed
1214:Generated_Source\PSoC5/UART_1.c ****     *  (0x0A) to the transmit buffer.
1215:Generated_Source\PSoC5/UART_1.c ****     *
1216:Generated_Source\PSoC5/UART_1.c ****     * Parameters:
1217:Generated_Source\PSoC5/UART_1.c ****     *  txDataByte: Data byte to transmit before the carriage return and line feed.
1218:Generated_Source\PSoC5/UART_1.c ****     *
1219:Generated_Source\PSoC5/UART_1.c ****     * Return:
1220:Generated_Source\PSoC5/UART_1.c ****     *  None.
1221:Generated_Source\PSoC5/UART_1.c ****     *
1222:Generated_Source\PSoC5/UART_1.c ****     * Global Variables:
1223:Generated_Source\PSoC5/UART_1.c ****     *  UART_1_initVar - checked to identify that the component has been
1224:Generated_Source\PSoC5/UART_1.c ****     *     initialized.
1225:Generated_Source\PSoC5/UART_1.c ****     *
1226:Generated_Source\PSoC5/UART_1.c ****     * Reentrant:
1227:Generated_Source\PSoC5/UART_1.c ****     *  No.
1228:Generated_Source\PSoC5/UART_1.c ****     *
1229:Generated_Source\PSoC5/UART_1.c ****     *******************************************************************************/
1230:Generated_Source\PSoC5/UART_1.c ****     void UART_1_PutCRLF(uint8 txDataByte) 
1231:Generated_Source\PSoC5/UART_1.c ****     {
 1234              		.loc 1 1231 0
 1235              		.cfi_startproc
 1236              		@ args = 0, pretend = 0, frame = 0
 1237              		@ frame_needed = 0, uses_anonymous_args = 0
 1238              	.LVL93:
 1239 0000 08B5     		push	{r3, lr}
 1240              		.cfi_def_cfa_offset 8
 1241              		.cfi_offset 3, -8
 1242              		.cfi_offset 14, -4
1232:Generated_Source\PSoC5/UART_1.c ****         /* If not Initialized then skip this function */
1233:Generated_Source\PSoC5/UART_1.c ****         if(UART_1_initVar != 0u)
 1243              		.loc 1 1233 0
 1244 0002 064B     		ldr	r3, .L115
 1245 0004 9B79     		ldrb	r3, [r3, #6]	@ zero_extendqisi2
 1246 0006 3BB1     		cbz	r3, .L112
1234:Generated_Source\PSoC5/UART_1.c ****         {
1235:Generated_Source\PSoC5/UART_1.c ****             UART_1_PutChar(txDataByte);
ARM GAS  C:\Users\DELL\AppData\Local\Temp\cc7AnBD9.s 			page 45


 1247              		.loc 1 1235 0
 1248 0008 FFF7FEFF 		bl	UART_1_PutChar
 1249              	.LVL94:
1236:Generated_Source\PSoC5/UART_1.c ****             UART_1_PutChar(0x0Du);
 1250              		.loc 1 1236 0
 1251 000c 0D20     		movs	r0, #13
 1252 000e FFF7FEFF 		bl	UART_1_PutChar
 1253              	.LVL95:
1237:Generated_Source\PSoC5/UART_1.c ****             UART_1_PutChar(0x0Au);
 1254              		.loc 1 1237 0
 1255 0012 0A20     		movs	r0, #10
 1256 0014 FFF7FEFF 		bl	UART_1_PutChar
 1257              	.LVL96:
 1258              	.L112:
 1259 0018 08BD     		pop	{r3, pc}
 1260              	.L116:
 1261 001a 00BF     		.align	2
 1262              	.L115:
 1263 001c 00000000 		.word	.LANCHOR0
 1264              		.cfi_endproc
 1265              	.LFE22:
 1266              		.size	UART_1_PutCRLF, .-UART_1_PutCRLF
 1267              		.section	.text.UART_1_GetTxBufferSize,"ax",%progbits
 1268              		.align	2
 1269              		.global	UART_1_GetTxBufferSize
 1270              		.thumb
 1271              		.thumb_func
 1272              		.type	UART_1_GetTxBufferSize, %function
 1273              	UART_1_GetTxBufferSize:
 1274              	.LFB23:
1238:Generated_Source\PSoC5/UART_1.c ****         }
1239:Generated_Source\PSoC5/UART_1.c ****     }
1240:Generated_Source\PSoC5/UART_1.c **** 
1241:Generated_Source\PSoC5/UART_1.c **** 
1242:Generated_Source\PSoC5/UART_1.c ****     /*******************************************************************************
1243:Generated_Source\PSoC5/UART_1.c ****     * Function Name: UART_1_GetTxBufferSize
1244:Generated_Source\PSoC5/UART_1.c ****     ********************************************************************************
1245:Generated_Source\PSoC5/UART_1.c ****     *
1246:Generated_Source\PSoC5/UART_1.c ****     * Summary:
1247:Generated_Source\PSoC5/UART_1.c ****     *  Returns the number of bytes in the TX buffer which are waiting to be 
1248:Generated_Source\PSoC5/UART_1.c ****     *  transmitted.
1249:Generated_Source\PSoC5/UART_1.c ****     *  * TX software buffer is disabled (TX Buffer Size parameter is equal to 4): 
1250:Generated_Source\PSoC5/UART_1.c ****     *    returns 0 for empty TX FIFO, 1 for not full TX FIFO or 4 for full TX FIFO.
1251:Generated_Source\PSoC5/UART_1.c ****     *  * TX software buffer is enabled: returns the number of bytes in the TX 
1252:Generated_Source\PSoC5/UART_1.c ****     *    software buffer which are waiting to be transmitted. Bytes available in the
1253:Generated_Source\PSoC5/UART_1.c ****     *    TX FIFO do not count.
1254:Generated_Source\PSoC5/UART_1.c ****     *
1255:Generated_Source\PSoC5/UART_1.c ****     * Parameters:
1256:Generated_Source\PSoC5/UART_1.c ****     *  None.
1257:Generated_Source\PSoC5/UART_1.c ****     *
1258:Generated_Source\PSoC5/UART_1.c ****     * Return:
1259:Generated_Source\PSoC5/UART_1.c ****     *  Number of bytes used in the TX buffer. Return value type depends on the TX 
1260:Generated_Source\PSoC5/UART_1.c ****     *  Buffer Size parameter.
1261:Generated_Source\PSoC5/UART_1.c ****     *
1262:Generated_Source\PSoC5/UART_1.c ****     * Global Variables:
1263:Generated_Source\PSoC5/UART_1.c ****     *  UART_1_txBufferWrite - used to calculate left space.
1264:Generated_Source\PSoC5/UART_1.c ****     *  UART_1_txBufferRead - used to calculate left space.
ARM GAS  C:\Users\DELL\AppData\Local\Temp\cc7AnBD9.s 			page 46


1265:Generated_Source\PSoC5/UART_1.c ****     *
1266:Generated_Source\PSoC5/UART_1.c ****     * Reentrant:
1267:Generated_Source\PSoC5/UART_1.c ****     *  No.
1268:Generated_Source\PSoC5/UART_1.c ****     *
1269:Generated_Source\PSoC5/UART_1.c ****     * Theory:
1270:Generated_Source\PSoC5/UART_1.c ****     *  Allows the user to find out how full the TX Buffer is.
1271:Generated_Source\PSoC5/UART_1.c ****     *
1272:Generated_Source\PSoC5/UART_1.c ****     *******************************************************************************/
1273:Generated_Source\PSoC5/UART_1.c ****     uint8 UART_1_GetTxBufferSize(void)
1274:Generated_Source\PSoC5/UART_1.c ****                                                             
1275:Generated_Source\PSoC5/UART_1.c ****     {
 1275              		.loc 1 1275 0
 1276              		.cfi_startproc
 1277              		@ args = 0, pretend = 0, frame = 0
 1278              		@ frame_needed = 0, uses_anonymous_args = 0
 1279              		@ link register save eliminated.
1276:Generated_Source\PSoC5/UART_1.c ****         uint8 size;
1277:Generated_Source\PSoC5/UART_1.c **** 
1278:Generated_Source\PSoC5/UART_1.c ****     #if (UART_1_TX_INTERRUPT_ENABLED)
1279:Generated_Source\PSoC5/UART_1.c **** 
1280:Generated_Source\PSoC5/UART_1.c ****         /* Protect variables that could change on interrupt. */
1281:Generated_Source\PSoC5/UART_1.c ****         UART_1_DisableTxInt();
 1280              		.loc 1 1281 0
 1281 0000 0222     		movs	r2, #2
 1282 0002 0E4B     		ldr	r3, .L121
 1283 0004 1A60     		str	r2, [r3]
1282:Generated_Source\PSoC5/UART_1.c **** 
1283:Generated_Source\PSoC5/UART_1.c ****         if(UART_1_txBufferRead == UART_1_txBufferWrite)
 1284              		.loc 1 1283 0
 1285 0006 0E4B     		ldr	r3, .L121+4
 1286 0008 DA79     		ldrb	r2, [r3, #7]	@ zero_extendqisi2
 1287 000a D2B2     		uxtb	r2, r2
 1288 000c 1B7A     		ldrb	r3, [r3, #8]	@ zero_extendqisi2
 1289 000e 9A42     		cmp	r2, r3
 1290 0010 0FD0     		beq	.L120
1284:Generated_Source\PSoC5/UART_1.c ****         {
1285:Generated_Source\PSoC5/UART_1.c ****             size = 0u;
1286:Generated_Source\PSoC5/UART_1.c ****         }
1287:Generated_Source\PSoC5/UART_1.c ****         else if(UART_1_txBufferRead < UART_1_txBufferWrite)
 1291              		.loc 1 1287 0
 1292 0012 0B4A     		ldr	r2, .L121+4
 1293 0014 D279     		ldrb	r2, [r2, #7]	@ zero_extendqisi2
 1294 0016 D2B2     		uxtb	r2, r2
 1295 0018 9342     		cmp	r3, r2
 1296 001a 04D9     		bls	.L119
1288:Generated_Source\PSoC5/UART_1.c ****         {
1289:Generated_Source\PSoC5/UART_1.c ****             size = (UART_1_txBufferWrite - UART_1_txBufferRead);
 1297              		.loc 1 1289 0
 1298 001c 084A     		ldr	r2, .L121+4
 1299 001e D079     		ldrb	r0, [r2, #7]	@ zero_extendqisi2
 1300 0020 181A     		subs	r0, r3, r0
 1301 0022 C0B2     		uxtb	r0, r0
 1302              	.LVL97:
 1303 0024 06E0     		b	.L118
 1304              	.LVL98:
 1305              	.L119:
1290:Generated_Source\PSoC5/UART_1.c ****         }
ARM GAS  C:\Users\DELL\AppData\Local\Temp\cc7AnBD9.s 			page 47


1291:Generated_Source\PSoC5/UART_1.c ****         else
1292:Generated_Source\PSoC5/UART_1.c ****         {
1293:Generated_Source\PSoC5/UART_1.c ****             size = (UART_1_TX_BUFFER_SIZE - UART_1_txBufferRead) +
 1306              		.loc 1 1293 0
 1307 0026 064A     		ldr	r2, .L121+4
 1308 0028 D079     		ldrb	r0, [r2, #7]	@ zero_extendqisi2
 1309 002a 181A     		subs	r0, r3, r0
 1310 002c 0830     		adds	r0, r0, #8
 1311 002e C0B2     		uxtb	r0, r0
 1312              	.LVL99:
 1313 0030 00E0     		b	.L118
 1314              	.LVL100:
 1315              	.L120:
1285:Generated_Source\PSoC5/UART_1.c ****         }
 1316              		.loc 1 1285 0
 1317 0032 0020     		movs	r0, #0
 1318              	.L118:
 1319              	.LVL101:
1294:Generated_Source\PSoC5/UART_1.c ****                     UART_1_txBufferWrite;
1295:Generated_Source\PSoC5/UART_1.c ****         }
1296:Generated_Source\PSoC5/UART_1.c **** 
1297:Generated_Source\PSoC5/UART_1.c ****         UART_1_EnableTxInt();
 1320              		.loc 1 1297 0
 1321 0034 0222     		movs	r2, #2
 1322 0036 034B     		ldr	r3, .L121+8
 1323 0038 1A60     		str	r2, [r3]
1298:Generated_Source\PSoC5/UART_1.c **** 
1299:Generated_Source\PSoC5/UART_1.c ****     #else
1300:Generated_Source\PSoC5/UART_1.c **** 
1301:Generated_Source\PSoC5/UART_1.c ****         size = UART_1_TXSTATUS_REG;
1302:Generated_Source\PSoC5/UART_1.c **** 
1303:Generated_Source\PSoC5/UART_1.c ****         /* Is the fifo is full. */
1304:Generated_Source\PSoC5/UART_1.c ****         if((size & UART_1_TX_STS_FIFO_FULL) != 0u)
1305:Generated_Source\PSoC5/UART_1.c ****         {
1306:Generated_Source\PSoC5/UART_1.c ****             size = UART_1_FIFO_LENGTH;
1307:Generated_Source\PSoC5/UART_1.c ****         }
1308:Generated_Source\PSoC5/UART_1.c ****         else if((size & UART_1_TX_STS_FIFO_EMPTY) != 0u)
1309:Generated_Source\PSoC5/UART_1.c ****         {
1310:Generated_Source\PSoC5/UART_1.c ****             size = 0u;
1311:Generated_Source\PSoC5/UART_1.c ****         }
1312:Generated_Source\PSoC5/UART_1.c ****         else
1313:Generated_Source\PSoC5/UART_1.c ****         {
1314:Generated_Source\PSoC5/UART_1.c ****             /* We only know there is data in the fifo. */
1315:Generated_Source\PSoC5/UART_1.c ****             size = 1u;
1316:Generated_Source\PSoC5/UART_1.c ****         }
1317:Generated_Source\PSoC5/UART_1.c **** 
1318:Generated_Source\PSoC5/UART_1.c ****     #endif /* (UART_1_TX_INTERRUPT_ENABLED) */
1319:Generated_Source\PSoC5/UART_1.c **** 
1320:Generated_Source\PSoC5/UART_1.c ****     return(size);
1321:Generated_Source\PSoC5/UART_1.c ****     }
 1324              		.loc 1 1321 0
 1325 003a 7047     		bx	lr
 1326              	.L122:
 1327              		.align	2
 1328              	.L121:
 1329 003c 80E100E0 		.word	-536813184
 1330 0040 00000000 		.word	.LANCHOR0
ARM GAS  C:\Users\DELL\AppData\Local\Temp\cc7AnBD9.s 			page 48


 1331 0044 00E100E0 		.word	-536813312
 1332              		.cfi_endproc
 1333              	.LFE23:
 1334              		.size	UART_1_GetTxBufferSize, .-UART_1_GetTxBufferSize
 1335              		.section	.text.UART_1_ClearTxBuffer,"ax",%progbits
 1336              		.align	2
 1337              		.global	UART_1_ClearTxBuffer
 1338              		.thumb
 1339              		.thumb_func
 1340              		.type	UART_1_ClearTxBuffer, %function
 1341              	UART_1_ClearTxBuffer:
 1342              	.LFB24:
1322:Generated_Source\PSoC5/UART_1.c **** 
1323:Generated_Source\PSoC5/UART_1.c **** 
1324:Generated_Source\PSoC5/UART_1.c ****     /*******************************************************************************
1325:Generated_Source\PSoC5/UART_1.c ****     * Function Name: UART_1_ClearTxBuffer
1326:Generated_Source\PSoC5/UART_1.c ****     ********************************************************************************
1327:Generated_Source\PSoC5/UART_1.c ****     *
1328:Generated_Source\PSoC5/UART_1.c ****     * Summary:
1329:Generated_Source\PSoC5/UART_1.c ****     *  Clears all data from the TX buffer and hardware TX FIFO.
1330:Generated_Source\PSoC5/UART_1.c ****     *
1331:Generated_Source\PSoC5/UART_1.c ****     * Parameters:
1332:Generated_Source\PSoC5/UART_1.c ****     *  None.
1333:Generated_Source\PSoC5/UART_1.c ****     *
1334:Generated_Source\PSoC5/UART_1.c ****     * Return:
1335:Generated_Source\PSoC5/UART_1.c ****     *  None.
1336:Generated_Source\PSoC5/UART_1.c ****     *
1337:Generated_Source\PSoC5/UART_1.c ****     * Global Variables:
1338:Generated_Source\PSoC5/UART_1.c ****     *  UART_1_txBufferWrite - cleared to zero.
1339:Generated_Source\PSoC5/UART_1.c ****     *  UART_1_txBufferRead - cleared to zero.
1340:Generated_Source\PSoC5/UART_1.c ****     *
1341:Generated_Source\PSoC5/UART_1.c ****     * Reentrant:
1342:Generated_Source\PSoC5/UART_1.c ****     *  No.
1343:Generated_Source\PSoC5/UART_1.c ****     *
1344:Generated_Source\PSoC5/UART_1.c ****     * Theory:
1345:Generated_Source\PSoC5/UART_1.c ****     *  Setting the pointers to zero makes the system believe there is no data to
1346:Generated_Source\PSoC5/UART_1.c ****     *  read and writing will resume at address 0 overwriting any data that may have
1347:Generated_Source\PSoC5/UART_1.c ****     *  remained in the RAM.
1348:Generated_Source\PSoC5/UART_1.c ****     *
1349:Generated_Source\PSoC5/UART_1.c ****     * Side Effects:
1350:Generated_Source\PSoC5/UART_1.c ****     *  Data waiting in the transmit buffer is not sent; a byte that is currently
1351:Generated_Source\PSoC5/UART_1.c ****     *  transmitting finishes transmitting.
1352:Generated_Source\PSoC5/UART_1.c ****     *
1353:Generated_Source\PSoC5/UART_1.c ****     *******************************************************************************/
1354:Generated_Source\PSoC5/UART_1.c ****     void UART_1_ClearTxBuffer(void) 
1355:Generated_Source\PSoC5/UART_1.c ****     {
 1343              		.loc 1 1355 0
 1344              		.cfi_startproc
 1345              		@ args = 0, pretend = 0, frame = 0
 1346              		@ frame_needed = 0, uses_anonymous_args = 0
 1347 0000 08B5     		push	{r3, lr}
 1348              		.cfi_def_cfa_offset 8
 1349              		.cfi_offset 3, -8
 1350              		.cfi_offset 14, -4
1356:Generated_Source\PSoC5/UART_1.c ****         uint8 enableInterrupts;
1357:Generated_Source\PSoC5/UART_1.c **** 
1358:Generated_Source\PSoC5/UART_1.c ****         enableInterrupts = CyEnterCriticalSection();
ARM GAS  C:\Users\DELL\AppData\Local\Temp\cc7AnBD9.s 			page 49


 1351              		.loc 1 1358 0
 1352 0002 FFF7FEFF 		bl	CyEnterCriticalSection
 1353              	.LVL102:
1359:Generated_Source\PSoC5/UART_1.c ****         /* Clear the HW FIFO */
1360:Generated_Source\PSoC5/UART_1.c ****         UART_1_TXDATA_AUX_CTL_REG |= (uint8)  UART_1_TX_FIFO_CLR;
 1354              		.loc 1 1360 0
 1355 0006 0A4B     		ldr	r3, .L125
 1356 0008 1A78     		ldrb	r2, [r3]	@ zero_extendqisi2
 1357 000a 42F00102 		orr	r2, r2, #1
 1358 000e 1A70     		strb	r2, [r3]
1361:Generated_Source\PSoC5/UART_1.c ****         UART_1_TXDATA_AUX_CTL_REG &= (uint8) ~UART_1_TX_FIFO_CLR;
 1359              		.loc 1 1361 0
 1360 0010 1A78     		ldrb	r2, [r3]	@ zero_extendqisi2
 1361 0012 02F0FE02 		and	r2, r2, #254
 1362 0016 1A70     		strb	r2, [r3]
1362:Generated_Source\PSoC5/UART_1.c ****         CyExitCriticalSection(enableInterrupts);
 1363              		.loc 1 1362 0
 1364 0018 FFF7FEFF 		bl	CyExitCriticalSection
 1365              	.LVL103:
1363:Generated_Source\PSoC5/UART_1.c **** 
1364:Generated_Source\PSoC5/UART_1.c ****     #if (UART_1_TX_INTERRUPT_ENABLED)
1365:Generated_Source\PSoC5/UART_1.c **** 
1366:Generated_Source\PSoC5/UART_1.c ****         /* Protect variables that could change on interrupt. */
1367:Generated_Source\PSoC5/UART_1.c ****         UART_1_DisableTxInt();
 1366              		.loc 1 1367 0
 1367 001c 0223     		movs	r3, #2
 1368 001e 054A     		ldr	r2, .L125+4
 1369 0020 1360     		str	r3, [r2]
1368:Generated_Source\PSoC5/UART_1.c **** 
1369:Generated_Source\PSoC5/UART_1.c ****         UART_1_txBufferRead = 0u;
 1370              		.loc 1 1369 0
 1371 0022 054A     		ldr	r2, .L125+8
 1372 0024 0021     		movs	r1, #0
 1373 0026 D171     		strb	r1, [r2, #7]
1370:Generated_Source\PSoC5/UART_1.c ****         UART_1_txBufferWrite = 0u;
 1374              		.loc 1 1370 0
 1375 0028 1172     		strb	r1, [r2, #8]
1371:Generated_Source\PSoC5/UART_1.c **** 
1372:Generated_Source\PSoC5/UART_1.c ****         /* Enable Tx interrupt. */
1373:Generated_Source\PSoC5/UART_1.c ****         UART_1_EnableTxInt();
 1376              		.loc 1 1373 0
 1377 002a 044A     		ldr	r2, .L125+12
 1378 002c 1360     		str	r3, [r2]
 1379 002e 08BD     		pop	{r3, pc}
 1380              	.L126:
 1381              		.align	2
 1382              	.L125:
 1383 0030 9A650040 		.word	1073767834
 1384 0034 80E100E0 		.word	-536813184
 1385 0038 00000000 		.word	.LANCHOR0
 1386 003c 00E100E0 		.word	-536813312
 1387              		.cfi_endproc
 1388              	.LFE24:
 1389              		.size	UART_1_ClearTxBuffer, .-UART_1_ClearTxBuffer
 1390              		.section	.text.UART_1_SendBreak,"ax",%progbits
 1391              		.align	2
 1392              		.global	UART_1_SendBreak
ARM GAS  C:\Users\DELL\AppData\Local\Temp\cc7AnBD9.s 			page 50


 1393              		.thumb
 1394              		.thumb_func
 1395              		.type	UART_1_SendBreak, %function
 1396              	UART_1_SendBreak:
 1397              	.LFB25:
1374:Generated_Source\PSoC5/UART_1.c **** 
1375:Generated_Source\PSoC5/UART_1.c ****     #endif /* (UART_1_TX_INTERRUPT_ENABLED) */
1376:Generated_Source\PSoC5/UART_1.c ****     }
1377:Generated_Source\PSoC5/UART_1.c **** 
1378:Generated_Source\PSoC5/UART_1.c **** 
1379:Generated_Source\PSoC5/UART_1.c ****     /*******************************************************************************
1380:Generated_Source\PSoC5/UART_1.c ****     * Function Name: UART_1_SendBreak
1381:Generated_Source\PSoC5/UART_1.c ****     ********************************************************************************
1382:Generated_Source\PSoC5/UART_1.c ****     *
1383:Generated_Source\PSoC5/UART_1.c ****     * Summary:
1384:Generated_Source\PSoC5/UART_1.c ****     *  Transmits a break signal on the bus.
1385:Generated_Source\PSoC5/UART_1.c ****     *
1386:Generated_Source\PSoC5/UART_1.c ****     * Parameters:
1387:Generated_Source\PSoC5/UART_1.c ****     *  uint8 retMode:  Send Break return mode. See the following table for options.
1388:Generated_Source\PSoC5/UART_1.c ****     *   UART_1_SEND_BREAK - Initialize registers for break, send the Break
1389:Generated_Source\PSoC5/UART_1.c ****     *       signal and return immediately.
1390:Generated_Source\PSoC5/UART_1.c ****     *   UART_1_WAIT_FOR_COMPLETE_REINIT - Wait until break transmission is
1391:Generated_Source\PSoC5/UART_1.c ****     *       complete, reinitialize registers to normal transmission mode then return
1392:Generated_Source\PSoC5/UART_1.c ****     *   UART_1_REINIT - Reinitialize registers to normal transmission mode
1393:Generated_Source\PSoC5/UART_1.c ****     *       then return.
1394:Generated_Source\PSoC5/UART_1.c ****     *   UART_1_SEND_WAIT_REINIT - Performs both options: 
1395:Generated_Source\PSoC5/UART_1.c ****     *      UART_1_SEND_BREAK and UART_1_WAIT_FOR_COMPLETE_REINIT.
1396:Generated_Source\PSoC5/UART_1.c ****     *      This option is recommended for most cases.
1397:Generated_Source\PSoC5/UART_1.c ****     *
1398:Generated_Source\PSoC5/UART_1.c ****     * Return:
1399:Generated_Source\PSoC5/UART_1.c ****     *  None.
1400:Generated_Source\PSoC5/UART_1.c ****     *
1401:Generated_Source\PSoC5/UART_1.c ****     * Global Variables:
1402:Generated_Source\PSoC5/UART_1.c ****     *  UART_1_initVar - checked to identify that the component has been
1403:Generated_Source\PSoC5/UART_1.c ****     *     initialized.
1404:Generated_Source\PSoC5/UART_1.c ****     *  txPeriod - static variable, used for keeping TX period configuration.
1405:Generated_Source\PSoC5/UART_1.c ****     *
1406:Generated_Source\PSoC5/UART_1.c ****     * Reentrant:
1407:Generated_Source\PSoC5/UART_1.c ****     *  No.
1408:Generated_Source\PSoC5/UART_1.c ****     *
1409:Generated_Source\PSoC5/UART_1.c ****     * Theory:
1410:Generated_Source\PSoC5/UART_1.c ****     *  SendBreak function initializes registers to send 13-bit break signal. It is
1411:Generated_Source\PSoC5/UART_1.c ****     *  important to return the registers configuration to normal for continue 8-bit
1412:Generated_Source\PSoC5/UART_1.c ****     *  operation.
1413:Generated_Source\PSoC5/UART_1.c ****     *  There are 3 variants for this API usage:
1414:Generated_Source\PSoC5/UART_1.c ****     *  1) SendBreak(3) - function will send the Break signal and take care on the
1415:Generated_Source\PSoC5/UART_1.c ****     *     configuration returning. Function will block CPU until transmission
1416:Generated_Source\PSoC5/UART_1.c ****     *     complete.
1417:Generated_Source\PSoC5/UART_1.c ****     *  2) User may want to use blocking time if UART configured to the low speed
1418:Generated_Source\PSoC5/UART_1.c ****     *     operation
1419:Generated_Source\PSoC5/UART_1.c ****     *     Example for this case:
1420:Generated_Source\PSoC5/UART_1.c ****     *     SendBreak(0);     - initialize Break signal transmission
1421:Generated_Source\PSoC5/UART_1.c ****     *         Add your code here to use CPU time
1422:Generated_Source\PSoC5/UART_1.c ****     *     SendBreak(1);     - complete Break operation
1423:Generated_Source\PSoC5/UART_1.c ****     *  3) Same to 2) but user may want to initialize and use the interrupt to
1424:Generated_Source\PSoC5/UART_1.c ****     *     complete break operation.
1425:Generated_Source\PSoC5/UART_1.c ****     *     Example for this case:
ARM GAS  C:\Users\DELL\AppData\Local\Temp\cc7AnBD9.s 			page 51


1426:Generated_Source\PSoC5/UART_1.c ****     *     Initialize TX interrupt with "TX - On TX Complete" parameter
1427:Generated_Source\PSoC5/UART_1.c ****     *     SendBreak(0);     - initialize Break signal transmission
1428:Generated_Source\PSoC5/UART_1.c ****     *         Add your code here to use CPU time
1429:Generated_Source\PSoC5/UART_1.c ****     *     When interrupt appear with UART_1_TX_STS_COMPLETE status:
1430:Generated_Source\PSoC5/UART_1.c ****     *     SendBreak(2);     - complete Break operation
1431:Generated_Source\PSoC5/UART_1.c ****     *
1432:Generated_Source\PSoC5/UART_1.c ****     * Side Effects:
1433:Generated_Source\PSoC5/UART_1.c ****     *  The UART_1_SendBreak() function initializes registers to send a
1434:Generated_Source\PSoC5/UART_1.c ****     *  break signal.
1435:Generated_Source\PSoC5/UART_1.c ****     *  Break signal length depends on the break signal bits configuration.
1436:Generated_Source\PSoC5/UART_1.c ****     *  The register configuration should be reinitialized before normal 8-bit
1437:Generated_Source\PSoC5/UART_1.c ****     *  communication can continue.
1438:Generated_Source\PSoC5/UART_1.c ****     *
1439:Generated_Source\PSoC5/UART_1.c ****     *******************************************************************************/
1440:Generated_Source\PSoC5/UART_1.c ****     void UART_1_SendBreak(uint8 retMode) 
1441:Generated_Source\PSoC5/UART_1.c ****     {
 1398              		.loc 1 1441 0
 1399              		.cfi_startproc
 1400              		@ args = 0, pretend = 0, frame = 0
 1401              		@ frame_needed = 0, uses_anonymous_args = 0
 1402              		@ link register save eliminated.
 1403              	.LVL104:
1442:Generated_Source\PSoC5/UART_1.c **** 
1443:Generated_Source\PSoC5/UART_1.c ****         /* If not Initialized then skip this function*/
1444:Generated_Source\PSoC5/UART_1.c ****         if(UART_1_initVar != 0u)
 1404              		.loc 1 1444 0
 1405 0000 124B     		ldr	r3, .L134
 1406 0002 9B79     		ldrb	r3, [r3, #6]	@ zero_extendqisi2
 1407 0004 0BB3     		cbz	r3, .L127
 1408              	.LBB2:
1445:Generated_Source\PSoC5/UART_1.c ****         {
1446:Generated_Source\PSoC5/UART_1.c ****             /* Set the Counter to 13-bits and transmit a 00 byte */
1447:Generated_Source\PSoC5/UART_1.c ****             /* When that is done then reset the counter value back */
1448:Generated_Source\PSoC5/UART_1.c ****             uint8 tmpStat;
1449:Generated_Source\PSoC5/UART_1.c **** 
1450:Generated_Source\PSoC5/UART_1.c ****         #if(UART_1_HD_ENABLED) /* Half Duplex mode*/
1451:Generated_Source\PSoC5/UART_1.c **** 
1452:Generated_Source\PSoC5/UART_1.c ****             if( (retMode == UART_1_SEND_BREAK) ||
1453:Generated_Source\PSoC5/UART_1.c ****                 (retMode == UART_1_SEND_WAIT_REINIT ) )
1454:Generated_Source\PSoC5/UART_1.c ****             {
1455:Generated_Source\PSoC5/UART_1.c ****                 /* CTRL_HD_SEND_BREAK - sends break bits in HD mode */
1456:Generated_Source\PSoC5/UART_1.c ****                 UART_1_WriteControlRegister(UART_1_ReadControlRegister() |
1457:Generated_Source\PSoC5/UART_1.c ****                                                       UART_1_CTRL_HD_SEND_BREAK);
1458:Generated_Source\PSoC5/UART_1.c ****                 /* Send zeros */
1459:Generated_Source\PSoC5/UART_1.c ****                 UART_1_TXDATA_REG = 0u;
1460:Generated_Source\PSoC5/UART_1.c **** 
1461:Generated_Source\PSoC5/UART_1.c ****                 do /* Wait until transmit starts */
1462:Generated_Source\PSoC5/UART_1.c ****                 {
1463:Generated_Source\PSoC5/UART_1.c ****                     tmpStat = UART_1_TXSTATUS_REG;
1464:Generated_Source\PSoC5/UART_1.c ****                 }
1465:Generated_Source\PSoC5/UART_1.c ****                 while((tmpStat & UART_1_TX_STS_FIFO_EMPTY) != 0u);
1466:Generated_Source\PSoC5/UART_1.c ****             }
1467:Generated_Source\PSoC5/UART_1.c **** 
1468:Generated_Source\PSoC5/UART_1.c ****             if( (retMode == UART_1_WAIT_FOR_COMPLETE_REINIT) ||
1469:Generated_Source\PSoC5/UART_1.c ****                 (retMode == UART_1_SEND_WAIT_REINIT) )
1470:Generated_Source\PSoC5/UART_1.c ****             {
1471:Generated_Source\PSoC5/UART_1.c ****                 do /* Wait until transmit complete */
ARM GAS  C:\Users\DELL\AppData\Local\Temp\cc7AnBD9.s 			page 52


1472:Generated_Source\PSoC5/UART_1.c ****                 {
1473:Generated_Source\PSoC5/UART_1.c ****                     tmpStat = UART_1_TXSTATUS_REG;
1474:Generated_Source\PSoC5/UART_1.c ****                 }
1475:Generated_Source\PSoC5/UART_1.c ****                 while(((uint8)~tmpStat & UART_1_TX_STS_COMPLETE) != 0u);
1476:Generated_Source\PSoC5/UART_1.c ****             }
1477:Generated_Source\PSoC5/UART_1.c **** 
1478:Generated_Source\PSoC5/UART_1.c ****             if( (retMode == UART_1_WAIT_FOR_COMPLETE_REINIT) ||
1479:Generated_Source\PSoC5/UART_1.c ****                 (retMode == UART_1_REINIT) ||
1480:Generated_Source\PSoC5/UART_1.c ****                 (retMode == UART_1_SEND_WAIT_REINIT) )
1481:Generated_Source\PSoC5/UART_1.c ****             {
1482:Generated_Source\PSoC5/UART_1.c ****                 UART_1_WriteControlRegister(UART_1_ReadControlRegister() &
1483:Generated_Source\PSoC5/UART_1.c ****                                               (uint8)~UART_1_CTRL_HD_SEND_BREAK);
1484:Generated_Source\PSoC5/UART_1.c ****             }
1485:Generated_Source\PSoC5/UART_1.c **** 
1486:Generated_Source\PSoC5/UART_1.c ****         #else /* UART_1_HD_ENABLED Full Duplex mode */
1487:Generated_Source\PSoC5/UART_1.c **** 
1488:Generated_Source\PSoC5/UART_1.c ****             static uint8 txPeriod;
1489:Generated_Source\PSoC5/UART_1.c **** 
1490:Generated_Source\PSoC5/UART_1.c ****             if( (retMode == UART_1_SEND_BREAK) ||
 1409              		.loc 1 1490 0
 1410 0006 08B1     		cbz	r0, .L129
 1411              		.loc 1 1490 0 is_stmt 0 discriminator 1
 1412 0008 0328     		cmp	r0, #3
 1413 000a 0DD1     		bne	.L130
 1414              	.L129:
1491:Generated_Source\PSoC5/UART_1.c ****                 (retMode == UART_1_SEND_WAIT_REINIT) )
1492:Generated_Source\PSoC5/UART_1.c ****             {
1493:Generated_Source\PSoC5/UART_1.c ****                 /* CTRL_HD_SEND_BREAK - skip to send parity bit at Break signal in Full Duplex mode
1494:Generated_Source\PSoC5/UART_1.c ****                 #if( (UART_1_PARITY_TYPE != UART_1__B_UART__NONE_REVB) || \
1495:Generated_Source\PSoC5/UART_1.c ****                                     (UART_1_PARITY_TYPE_SW != 0u) )
1496:Generated_Source\PSoC5/UART_1.c ****                     UART_1_WriteControlRegister(UART_1_ReadControlRegister() |
1497:Generated_Source\PSoC5/UART_1.c ****                                                           UART_1_CTRL_HD_SEND_BREAK);
1498:Generated_Source\PSoC5/UART_1.c ****                 #endif /* End UART_1_PARITY_TYPE != UART_1__B_UART__NONE_REVB  */
1499:Generated_Source\PSoC5/UART_1.c **** 
1500:Generated_Source\PSoC5/UART_1.c ****                 #if(UART_1_TXCLKGEN_DP)
1501:Generated_Source\PSoC5/UART_1.c ****                     txPeriod = UART_1_TXBITCLKTX_COMPLETE_REG;
 1415              		.loc 1 1501 0 is_stmt 1
 1416 000c 104B     		ldr	r3, .L134+4
 1417 000e 1978     		ldrb	r1, [r3]	@ zero_extendqisi2
 1418 0010 0E4A     		ldr	r2, .L134
 1419 0012 5172     		strb	r1, [r2, #9]
1502:Generated_Source\PSoC5/UART_1.c ****                     UART_1_TXBITCLKTX_COMPLETE_REG = UART_1_TXBITCTR_BREAKBITS;
 1420              		.loc 1 1502 0
 1421 0014 CF22     		movs	r2, #207
 1422 0016 1A70     		strb	r2, [r3]
1503:Generated_Source\PSoC5/UART_1.c ****                 #else
1504:Generated_Source\PSoC5/UART_1.c ****                     txPeriod = UART_1_TXBITCTR_PERIOD_REG;
1505:Generated_Source\PSoC5/UART_1.c ****                     UART_1_TXBITCTR_PERIOD_REG = UART_1_TXBITCTR_BREAKBITS8X;
1506:Generated_Source\PSoC5/UART_1.c ****                 #endif /* End UART_1_TXCLKGEN_DP */
1507:Generated_Source\PSoC5/UART_1.c **** 
1508:Generated_Source\PSoC5/UART_1.c ****                 /* Send zeros */
1509:Generated_Source\PSoC5/UART_1.c ****                 UART_1_TXDATA_REG = 0u;
 1423              		.loc 1 1509 0
 1424 0018 0022     		movs	r2, #0
 1425 001a 0F33     		adds	r3, r3, #15
 1426 001c 1A70     		strb	r2, [r3]
 1427              	.L131:
ARM GAS  C:\Users\DELL\AppData\Local\Temp\cc7AnBD9.s 			page 53


1510:Generated_Source\PSoC5/UART_1.c **** 
1511:Generated_Source\PSoC5/UART_1.c ****                 do /* Wait until transmit starts */
1512:Generated_Source\PSoC5/UART_1.c ****                 {
1513:Generated_Source\PSoC5/UART_1.c ****                     tmpStat = UART_1_TXSTATUS_REG;
 1428              		.loc 1 1513 0 discriminator 1
 1429 001e 0D4B     		ldr	r3, .L134+8
 1430 0020 1B78     		ldrb	r3, [r3]	@ zero_extendqisi2
 1431              	.LVL105:
1514:Generated_Source\PSoC5/UART_1.c ****                 }
1515:Generated_Source\PSoC5/UART_1.c ****                 while((tmpStat & UART_1_TX_STS_FIFO_EMPTY) != 0u);
 1432              		.loc 1 1515 0 discriminator 1
 1433 0022 13F0020F 		tst	r3, #2
 1434 0026 FAD1     		bne	.L131
 1435              	.LVL106:
 1436              	.L130:
1516:Generated_Source\PSoC5/UART_1.c ****             }
1517:Generated_Source\PSoC5/UART_1.c **** 
1518:Generated_Source\PSoC5/UART_1.c ****             if( (retMode == UART_1_WAIT_FOR_COMPLETE_REINIT) ||
 1437              		.loc 1 1518 0
 1438 0028 0128     		cmp	r0, #1
 1439 002a 01D0     		beq	.L132
 1440              		.loc 1 1518 0 is_stmt 0 discriminator 1
 1441 002c 0328     		cmp	r0, #3
 1442 002e 04D1     		bne	.L133
 1443              	.L132:
1519:Generated_Source\PSoC5/UART_1.c ****                 (retMode == UART_1_SEND_WAIT_REINIT) )
1520:Generated_Source\PSoC5/UART_1.c ****             {
1521:Generated_Source\PSoC5/UART_1.c ****                 do /* Wait until transmit complete */
1522:Generated_Source\PSoC5/UART_1.c ****                 {
1523:Generated_Source\PSoC5/UART_1.c ****                     tmpStat = UART_1_TXSTATUS_REG;
 1444              		.loc 1 1523 0 is_stmt 1 discriminator 1
 1445 0030 084B     		ldr	r3, .L134+8
 1446 0032 1B78     		ldrb	r3, [r3]	@ zero_extendqisi2
 1447              	.LVL107:
1524:Generated_Source\PSoC5/UART_1.c ****                 }
1525:Generated_Source\PSoC5/UART_1.c ****                 while(((uint8)~tmpStat & UART_1_TX_STS_COMPLETE) != 0u);
 1448              		.loc 1 1525 0 discriminator 1
 1449 0034 13F0010F 		tst	r3, #1
 1450 0038 FAD0     		beq	.L132
 1451              	.LVL108:
 1452              	.L133:
1526:Generated_Source\PSoC5/UART_1.c ****             }
1527:Generated_Source\PSoC5/UART_1.c **** 
1528:Generated_Source\PSoC5/UART_1.c ****             if( (retMode == UART_1_WAIT_FOR_COMPLETE_REINIT) ||
1529:Generated_Source\PSoC5/UART_1.c ****                 (retMode == UART_1_REINIT) ||
 1453              		.loc 1 1529 0
 1454 003a 0138     		subs	r0, r0, #1
 1455              	.LVL109:
 1456 003c C0B2     		uxtb	r0, r0
1528:Generated_Source\PSoC5/UART_1.c ****                 (retMode == UART_1_REINIT) ||
 1457              		.loc 1 1528 0
 1458 003e 0228     		cmp	r0, #2
 1459 0040 03D8     		bhi	.L127
1530:Generated_Source\PSoC5/UART_1.c ****                 (retMode == UART_1_SEND_WAIT_REINIT) )
1531:Generated_Source\PSoC5/UART_1.c ****             {
1532:Generated_Source\PSoC5/UART_1.c **** 
1533:Generated_Source\PSoC5/UART_1.c ****             #if(UART_1_TXCLKGEN_DP)
ARM GAS  C:\Users\DELL\AppData\Local\Temp\cc7AnBD9.s 			page 54


1534:Generated_Source\PSoC5/UART_1.c ****                 UART_1_TXBITCLKTX_COMPLETE_REG = txPeriod;
 1460              		.loc 1 1534 0
 1461 0042 024B     		ldr	r3, .L134
 1462 0044 5A7A     		ldrb	r2, [r3, #9]	@ zero_extendqisi2
 1463 0046 024B     		ldr	r3, .L134+4
 1464 0048 1A70     		strb	r2, [r3]
 1465              	.L127:
 1466 004a 7047     		bx	lr
 1467              	.L135:
 1468              		.align	2
 1469              	.L134:
 1470 004c 00000000 		.word	.LANCHOR0
 1471 0050 3B650040 		.word	1073767739
 1472 0054 6A650040 		.word	1073767786
 1473              	.LBE2:
 1474              		.cfi_endproc
 1475              	.LFE25:
 1476              		.size	UART_1_SendBreak, .-UART_1_SendBreak
 1477              		.section	.text.UART_1_SetTxAddressMode,"ax",%progbits
 1478              		.align	2
 1479              		.global	UART_1_SetTxAddressMode
 1480              		.thumb
 1481              		.thumb_func
 1482              		.type	UART_1_SetTxAddressMode, %function
 1483              	UART_1_SetTxAddressMode:
 1484              	.LFB26:
1535:Generated_Source\PSoC5/UART_1.c ****             #else
1536:Generated_Source\PSoC5/UART_1.c ****                 UART_1_TXBITCTR_PERIOD_REG = txPeriod;
1537:Generated_Source\PSoC5/UART_1.c ****             #endif /* End UART_1_TXCLKGEN_DP */
1538:Generated_Source\PSoC5/UART_1.c **** 
1539:Generated_Source\PSoC5/UART_1.c ****             #if( (UART_1_PARITY_TYPE != UART_1__B_UART__NONE_REVB) || \
1540:Generated_Source\PSoC5/UART_1.c ****                  (UART_1_PARITY_TYPE_SW != 0u) )
1541:Generated_Source\PSoC5/UART_1.c ****                 UART_1_WriteControlRegister(UART_1_ReadControlRegister() &
1542:Generated_Source\PSoC5/UART_1.c ****                                                       (uint8) ~UART_1_CTRL_HD_SEND_BREAK);
1543:Generated_Source\PSoC5/UART_1.c ****             #endif /* End UART_1_PARITY_TYPE != NONE */
1544:Generated_Source\PSoC5/UART_1.c ****             }
1545:Generated_Source\PSoC5/UART_1.c ****         #endif    /* End UART_1_HD_ENABLED */
1546:Generated_Source\PSoC5/UART_1.c ****         }
1547:Generated_Source\PSoC5/UART_1.c ****     }
1548:Generated_Source\PSoC5/UART_1.c **** 
1549:Generated_Source\PSoC5/UART_1.c **** 
1550:Generated_Source\PSoC5/UART_1.c ****     /*******************************************************************************
1551:Generated_Source\PSoC5/UART_1.c ****     * Function Name: UART_1_SetTxAddressMode
1552:Generated_Source\PSoC5/UART_1.c ****     ********************************************************************************
1553:Generated_Source\PSoC5/UART_1.c ****     *
1554:Generated_Source\PSoC5/UART_1.c ****     * Summary:
1555:Generated_Source\PSoC5/UART_1.c ****     *  Configures the transmitter to signal the next bytes is address or data.
1556:Generated_Source\PSoC5/UART_1.c ****     *
1557:Generated_Source\PSoC5/UART_1.c ****     * Parameters:
1558:Generated_Source\PSoC5/UART_1.c ****     *  addressMode: 
1559:Generated_Source\PSoC5/UART_1.c ****     *       UART_1_SET_SPACE - Configure the transmitter to send the next
1560:Generated_Source\PSoC5/UART_1.c ****     *                                    byte as a data.
1561:Generated_Source\PSoC5/UART_1.c ****     *       UART_1_SET_MARK  - Configure the transmitter to send the next
1562:Generated_Source\PSoC5/UART_1.c ****     *                                    byte as an address.
1563:Generated_Source\PSoC5/UART_1.c ****     *
1564:Generated_Source\PSoC5/UART_1.c ****     * Return:
1565:Generated_Source\PSoC5/UART_1.c ****     *  None.
ARM GAS  C:\Users\DELL\AppData\Local\Temp\cc7AnBD9.s 			page 55


1566:Generated_Source\PSoC5/UART_1.c ****     *
1567:Generated_Source\PSoC5/UART_1.c ****     * Side Effects:
1568:Generated_Source\PSoC5/UART_1.c ****     *  This function sets and clears UART_1_CTRL_MARK bit in the Control
1569:Generated_Source\PSoC5/UART_1.c ****     *  register.
1570:Generated_Source\PSoC5/UART_1.c ****     *
1571:Generated_Source\PSoC5/UART_1.c ****     *******************************************************************************/
1572:Generated_Source\PSoC5/UART_1.c ****     void UART_1_SetTxAddressMode(uint8 addressMode) 
1573:Generated_Source\PSoC5/UART_1.c ****     {
 1485              		.loc 1 1573 0
 1486              		.cfi_startproc
 1487              		@ args = 0, pretend = 0, frame = 0
 1488              		@ frame_needed = 0, uses_anonymous_args = 0
 1489              	.LVL110:
 1490 0000 08B5     		push	{r3, lr}
 1491              		.cfi_def_cfa_offset 8
 1492              		.cfi_offset 3, -8
 1493              		.cfi_offset 14, -4
1574:Generated_Source\PSoC5/UART_1.c ****         /* Mark/Space sending enable */
1575:Generated_Source\PSoC5/UART_1.c ****         if(addressMode != 0u)
 1494              		.loc 1 1575 0
 1495 0002 38B1     		cbz	r0, .L137
1576:Generated_Source\PSoC5/UART_1.c ****         {
1577:Generated_Source\PSoC5/UART_1.c ****         #if( UART_1_CONTROL_REG_REMOVED == 0u )
1578:Generated_Source\PSoC5/UART_1.c ****             UART_1_WriteControlRegister(UART_1_ReadControlRegister() |
 1496              		.loc 1 1578 0
 1497 0004 FFF7FEFF 		bl	UART_1_ReadControlRegister
 1498              	.LVL111:
 1499 0008 40F00400 		orr	r0, r0, #4
 1500 000c C0B2     		uxtb	r0, r0
 1501 000e FFF7FEFF 		bl	UART_1_WriteControlRegister
 1502              	.LVL112:
 1503 0012 08BD     		pop	{r3, pc}
 1504              	.LVL113:
 1505              	.L137:
1579:Generated_Source\PSoC5/UART_1.c ****                                                   UART_1_CTRL_MARK);
1580:Generated_Source\PSoC5/UART_1.c ****         #endif /* End UART_1_CONTROL_REG_REMOVED == 0u */
1581:Generated_Source\PSoC5/UART_1.c ****         }
1582:Generated_Source\PSoC5/UART_1.c ****         else
1583:Generated_Source\PSoC5/UART_1.c ****         {
1584:Generated_Source\PSoC5/UART_1.c ****         #if( UART_1_CONTROL_REG_REMOVED == 0u )
1585:Generated_Source\PSoC5/UART_1.c ****             UART_1_WriteControlRegister(UART_1_ReadControlRegister() &
 1506              		.loc 1 1585 0
 1507 0014 FFF7FEFF 		bl	UART_1_ReadControlRegister
 1508              	.LVL114:
 1509 0018 00F0FB00 		and	r0, r0, #251
 1510 001c FFF7FEFF 		bl	UART_1_WriteControlRegister
 1511              	.LVL115:
 1512 0020 08BD     		pop	{r3, pc}
 1513              		.cfi_endproc
 1514              	.LFE26:
 1515              		.size	UART_1_SetTxAddressMode, .-UART_1_SetTxAddressMode
 1516              		.global	UART_1_rxAddressDetected
 1517              		.global	UART_1_rxAddressMode
 1518              		.global	UART_1_rxBufferOverflow
 1519              		.global	UART_1_rxBufferLoopDetect
 1520              		.global	UART_1_rxBufferWrite
 1521              		.global	UART_1_rxBufferRead
ARM GAS  C:\Users\DELL\AppData\Local\Temp\cc7AnBD9.s 			page 56


 1522              		.comm	UART_1_rxBuffer,8,4
 1523              		.global	UART_1_errorStatus
 1524              		.global	UART_1_txBufferWrite
 1525              		.global	UART_1_txBufferRead
 1526              		.comm	UART_1_txBuffer,8,4
 1527              		.global	UART_1_initVar
 1528 0022 00BF     		.data
 1529              		.set	.LANCHOR1,. + 0
 1530              		.type	UART_1_rxAddressMode, %object
 1531              		.size	UART_1_rxAddressMode, 1
 1532              	UART_1_rxAddressMode:
 1533 0000 01       		.byte	1
 1534              		.bss
 1535              		.set	.LANCHOR0,. + 0
 1536              		.type	UART_1_rxAddressDetected, %object
 1537              		.size	UART_1_rxAddressDetected, 1
 1538              	UART_1_rxAddressDetected:
 1539 0000 00       		.space	1
 1540              		.type	UART_1_rxBufferRead, %object
 1541              		.size	UART_1_rxBufferRead, 1
 1542              	UART_1_rxBufferRead:
 1543 0001 00       		.space	1
 1544              		.type	UART_1_rxBufferWrite, %object
 1545              		.size	UART_1_rxBufferWrite, 1
 1546              	UART_1_rxBufferWrite:
 1547 0002 00       		.space	1
 1548              		.type	UART_1_rxBufferLoopDetect, %object
 1549              		.size	UART_1_rxBufferLoopDetect, 1
 1550              	UART_1_rxBufferLoopDetect:
 1551 0003 00       		.space	1
 1552              		.type	UART_1_rxBufferOverflow, %object
 1553              		.size	UART_1_rxBufferOverflow, 1
 1554              	UART_1_rxBufferOverflow:
 1555 0004 00       		.space	1
 1556              		.type	UART_1_errorStatus, %object
 1557              		.size	UART_1_errorStatus, 1
 1558              	UART_1_errorStatus:
 1559 0005 00       		.space	1
 1560              		.type	UART_1_initVar, %object
 1561              		.size	UART_1_initVar, 1
 1562              	UART_1_initVar:
 1563 0006 00       		.space	1
 1564              		.type	UART_1_txBufferRead, %object
 1565              		.size	UART_1_txBufferRead, 1
 1566              	UART_1_txBufferRead:
 1567 0007 00       		.space	1
 1568              		.type	UART_1_txBufferWrite, %object
 1569              		.size	UART_1_txBufferWrite, 1
 1570              	UART_1_txBufferWrite:
 1571 0008 00       		.space	1
 1572              		.type	txPeriod.5156, %object
 1573              		.size	txPeriod.5156, 1
 1574              	txPeriod.5156:
 1575 0009 00       		.space	1
 1576              		.text
 1577              	.Letext0:
 1578              		.file 2 "Generated_Source\\PSoC5\\cytypes.h"
ARM GAS  C:\Users\DELL\AppData\Local\Temp\cc7AnBD9.s 			page 57


 1579              		.file 3 "Generated_Source\\PSoC5\\CyLib.h"
 1580              		.file 4 "Generated_Source\\PSoC5\\UART_1_IntClock.h"